Archive member included to satisfy reference by file (symbol)

/home/deepika/Tools_controller/gcc-arm-none-eabi-6-2017-q2-update/bin/../lib/gcc/arm-none-eabi/6.3.1/../../../../arm-none-eabi/lib/thumb/v7e-m/libm.a(lib_a-sf_round.o)
                              CMakeFiles/la9310.dir/nmm_app.c.obj (roundf)
/home/deepika/Tools_controller/gcc-arm-none-eabi-6-2017-q2-update/bin/../lib/gcc/arm-none-eabi/6.3.1/../../../../arm-none-eabi/lib/thumb/v7e-m/libm.a(lib_a-w_atan2.o)
                              CMakeFiles/la9310.dir/nmm_app.c.obj (atan2)
/home/deepika/Tools_controller/gcc-arm-none-eabi-6-2017-q2-update/bin/../lib/gcc/arm-none-eabi/6.3.1/../../../../arm-none-eabi/lib/thumb/v7e-m/libm.a(lib_a-e_atan2.o)
                              /home/deepika/Tools_controller/gcc-arm-none-eabi-6-2017-q2-update/bin/../lib/gcc/arm-none-eabi/6.3.1/../../../../arm-none-eabi/lib/thumb/v7e-m/libm.a(lib_a-w_atan2.o) (__ieee754_atan2)
/home/deepika/Tools_controller/gcc-arm-none-eabi-6-2017-q2-update/bin/../lib/gcc/arm-none-eabi/6.3.1/../../../../arm-none-eabi/lib/thumb/v7e-m/libm.a(lib_a-s_atan.o)
                              /home/deepika/Tools_controller/gcc-arm-none-eabi-6-2017-q2-update/bin/../lib/gcc/arm-none-eabi/6.3.1/../../../../arm-none-eabi/lib/thumb/v7e-m/libm.a(lib_a-e_atan2.o) (atan)
/home/deepika/Tools_controller/gcc-arm-none-eabi-6-2017-q2-update/bin/../lib/gcc/arm-none-eabi/6.3.1/../../../../arm-none-eabi/lib/thumb/v7e-m/libm.a(lib_a-s_fabs.o)
                              /home/deepika/Tools_controller/gcc-arm-none-eabi-6-2017-q2-update/bin/../lib/gcc/arm-none-eabi/6.3.1/../../../../arm-none-eabi/lib/thumb/v7e-m/libm.a(lib_a-e_atan2.o) (fabs)
/home/deepika/Tools_controller/gcc-arm-none-eabi-6-2017-q2-update/bin/../lib/gcc/arm-none-eabi/6.3.1/../../../../arm-none-eabi/lib/thumb/v7e-m/libc_nano.a(lib_a-errno.o)
                              CMakeFiles/la9310.dir/utils/command_from_shell.c.obj (__errno)
/home/deepika/Tools_controller/gcc-arm-none-eabi-6-2017-q2-update/bin/../lib/gcc/arm-none-eabi/6.3.1/../../../../arm-none-eabi/lib/thumb/v7e-m/libc_nano.a(lib_a-exit.o)
                              /home/deepika/Tools_controller/gcc-arm-none-eabi-6-2017-q2-update/bin/../lib/gcc/arm-none-eabi/6.3.1/../../../../arm-none-eabi/lib/thumb/v7e-m/crt0.o (exit)
/home/deepika/Tools_controller/gcc-arm-none-eabi-6-2017-q2-update/bin/../lib/gcc/arm-none-eabi/6.3.1/../../../../arm-none-eabi/lib/thumb/v7e-m/libc_nano.a(lib_a-impure.o)
                              /home/deepika/Tools_controller/gcc-arm-none-eabi-6-2017-q2-update/bin/../lib/gcc/arm-none-eabi/6.3.1/../../../../arm-none-eabi/lib/thumb/v7e-m/libc_nano.a(lib_a-exit.o) (_global_impure_ptr)
/home/deepika/Tools_controller/gcc-arm-none-eabi-6-2017-q2-update/bin/../lib/gcc/arm-none-eabi/6.3.1/../../../../arm-none-eabi/lib/thumb/v7e-m/libc_nano.a(lib_a-init.o)
                              /home/deepika/Tools_controller/gcc-arm-none-eabi-6-2017-q2-update/bin/../lib/gcc/arm-none-eabi/6.3.1/../../../../arm-none-eabi/lib/thumb/v7e-m/crt0.o (__libc_init_array)
/home/deepika/Tools_controller/gcc-arm-none-eabi-6-2017-q2-update/bin/../lib/gcc/arm-none-eabi/6.3.1/../../../../arm-none-eabi/lib/thumb/v7e-m/libc_nano.a(lib_a-memcmp.o)
                              CMakeFiles/la9310.dir/drivers/timesync/sync_timing_device.c.obj (memcmp)
/home/deepika/Tools_controller/gcc-arm-none-eabi-6-2017-q2-update/bin/../lib/gcc/arm-none-eabi/6.3.1/../../../../arm-none-eabi/lib/thumb/v7e-m/libc_nano.a(lib_a-memcpy-stub.o)
                              CMakeFiles/la9310.dir/home/deepika/21_sept_macro_changes/PS_NLM_5G_LAT/nlm_controller/Source/queue.c.obj (memcpy)
/home/deepika/Tools_controller/gcc-arm-none-eabi-6-2017-q2-update/bin/../lib/gcc/arm-none-eabi/6.3.1/../../../../arm-none-eabi/lib/thumb/v7e-m/libc_nano.a(lib_a-memset.o)
                              /home/deepika/Tools_controller/gcc-arm-none-eabi-6-2017-q2-update/bin/../lib/gcc/arm-none-eabi/6.3.1/../../../../arm-none-eabi/lib/thumb/v7e-m/crt0.o (memset)
/home/deepika/Tools_controller/gcc-arm-none-eabi-6-2017-q2-update/bin/../lib/gcc/arm-none-eabi/6.3.1/../../../../arm-none-eabi/lib/thumb/v7e-m/libc_nano.a(lib_a-sprintf.o)
                              CMakeFiles/la9310.dir/utils/command_from_shell.c.obj (sprintf)
/home/deepika/Tools_controller/gcc-arm-none-eabi-6-2017-q2-update/bin/../lib/gcc/arm-none-eabi/6.3.1/../../../../arm-none-eabi/lib/thumb/v7e-m/libc_nano.a(lib_a-strcmp.o)
                              CMakeFiles/la9310.dir/utils/la9310_nlm_test_command.c.obj (strcmp)
/home/deepika/Tools_controller/gcc-arm-none-eabi-6-2017-q2-update/bin/../lib/gcc/arm-none-eabi/6.3.1/../../../../arm-none-eabi/lib/thumb/v7e-m/libc_nano.a(lib_a-strcpy.o)
                              CMakeFiles/la9310.dir/utils/UARTCommandConsole.c.obj (strcpy)
/home/deepika/Tools_controller/gcc-arm-none-eabi-6-2017-q2-update/bin/../lib/gcc/arm-none-eabi/6.3.1/../../../../arm-none-eabi/lib/thumb/v7e-m/libc_nano.a(lib_a-strlen.o)
                              CMakeFiles/la9310.dir/drivers/serial/print_scan.c.obj (strlen)
/home/deepika/Tools_controller/gcc-arm-none-eabi-6-2017-q2-update/bin/../lib/gcc/arm-none-eabi/6.3.1/../../../../arm-none-eabi/lib/thumb/v7e-m/libc_nano.a(lib_a-strncat.o)
                              CMakeFiles/la9310.dir/utils/command_from_shell.c.obj (strncat)
/home/deepika/Tools_controller/gcc-arm-none-eabi-6-2017-q2-update/bin/../lib/gcc/arm-none-eabi/6.3.1/../../../../arm-none-eabi/lib/thumb/v7e-m/libc_nano.a(lib_a-strncmp.o)
                              CMakeFiles/la9310.dir/utils/FreeRTOS-Plus-CLI-Source/FreeRTOS_CLI.c.obj (strncmp)
/home/deepika/Tools_controller/gcc-arm-none-eabi-6-2017-q2-update/bin/../lib/gcc/arm-none-eabi/6.3.1/../../../../arm-none-eabi/lib/thumb/v7e-m/libc_nano.a(lib_a-strncpy.o)
                              CMakeFiles/la9310.dir/utils/FreeRTOS-Plus-CLI-Source/FreeRTOS_CLI.c.obj (strncpy)
/home/deepika/Tools_controller/gcc-arm-none-eabi-6-2017-q2-update/bin/../lib/gcc/arm-none-eabi/6.3.1/../../../../arm-none-eabi/lib/thumb/v7e-m/libc_nano.a(lib_a-strtol.o)
                              CMakeFiles/la9310.dir/drivers/timesync/sync_timing_device_cli.c.obj (strtol)
/home/deepika/Tools_controller/gcc-arm-none-eabi-6-2017-q2-update/bin/../lib/gcc/arm-none-eabi/6.3.1/../../../../arm-none-eabi/lib/thumb/v7e-m/libc_nano.a(lib_a-strtoul.o)
                              CMakeFiles/la9310.dir/utils/command_from_shell.c.obj (strtoul)
/home/deepika/Tools_controller/gcc-arm-none-eabi-6-2017-q2-update/bin/../lib/gcc/arm-none-eabi/6.3.1/../../../../arm-none-eabi/lib/thumb/v7e-m/libc_nano.a(lib_a-locale.o)
                              /home/deepika/Tools_controller/gcc-arm-none-eabi-6-2017-q2-update/bin/../lib/gcc/arm-none-eabi/6.3.1/../../../../arm-none-eabi/lib/thumb/v7e-m/libc_nano.a(lib_a-strtol.o) (__locale_ctype_ptr_l)
/home/deepika/Tools_controller/gcc-arm-none-eabi-6-2017-q2-update/bin/../lib/gcc/arm-none-eabi/6.3.1/../../../../arm-none-eabi/lib/thumb/v7e-m/libc_nano.a(lib_a-mbtowc_r.o)
                              /home/deepika/Tools_controller/gcc-arm-none-eabi-6-2017-q2-update/bin/../lib/gcc/arm-none-eabi/6.3.1/../../../../arm-none-eabi/lib/thumb/v7e-m/libc_nano.a(lib_a-locale.o) (__ascii_mbtowc)
/home/deepika/Tools_controller/gcc-arm-none-eabi-6-2017-q2-update/bin/../lib/gcc/arm-none-eabi/6.3.1/../../../../arm-none-eabi/lib/thumb/v7e-m/libc_nano.a(lib_a-nano-svfprintf.o)
                              /home/deepika/Tools_controller/gcc-arm-none-eabi-6-2017-q2-update/bin/../lib/gcc/arm-none-eabi/6.3.1/../../../../arm-none-eabi/lib/thumb/v7e-m/libc_nano.a(lib_a-sprintf.o) (_svfprintf_r)
/home/deepika/Tools_controller/gcc-arm-none-eabi-6-2017-q2-update/bin/../lib/gcc/arm-none-eabi/6.3.1/../../../../arm-none-eabi/lib/thumb/v7e-m/libc_nano.a(lib_a-nano-vfprintf_i.o)
                              /home/deepika/Tools_controller/gcc-arm-none-eabi-6-2017-q2-update/bin/../lib/gcc/arm-none-eabi/6.3.1/../../../../arm-none-eabi/lib/thumb/v7e-m/libc_nano.a(lib_a-nano-svfprintf.o) (_printf_i)
/home/deepika/Tools_controller/gcc-arm-none-eabi-6-2017-q2-update/bin/../lib/gcc/arm-none-eabi/6.3.1/../../../../arm-none-eabi/lib/thumb/v7e-m/libc_nano.a(lib_a-wctomb_r.o)
                              /home/deepika/Tools_controller/gcc-arm-none-eabi-6-2017-q2-update/bin/../lib/gcc/arm-none-eabi/6.3.1/../../../../arm-none-eabi/lib/thumb/v7e-m/libc_nano.a(lib_a-locale.o) (__ascii_wctomb)
/home/deepika/Tools_controller/gcc-arm-none-eabi-6-2017-q2-update/bin/../lib/gcc/arm-none-eabi/6.3.1/../../../../arm-none-eabi/lib/thumb/v7e-m/libc_nano.a(lib_a-ctype_.o)
                              /home/deepika/Tools_controller/gcc-arm-none-eabi-6-2017-q2-update/bin/../lib/gcc/arm-none-eabi/6.3.1/../../../../arm-none-eabi/lib/thumb/v7e-m/libc_nano.a(lib_a-locale.o) (_ctype_)
/home/deepika/Tools_controller/gcc-arm-none-eabi-6-2017-q2-update/bin/../lib/gcc/arm-none-eabi/6.3.1/../../../../arm-none-eabi/lib/thumb/v7e-m/libc_nano.a(lib_a-memchr.o)
                              /home/deepika/Tools_controller/gcc-arm-none-eabi-6-2017-q2-update/bin/../lib/gcc/arm-none-eabi/6.3.1/../../../../arm-none-eabi/lib/thumb/v7e-m/libc_nano.a(lib_a-nano-svfprintf.o) (memchr)
/home/deepika/Tools_controller/gcc-arm-none-eabi-6-2017-q2-update/bin/../lib/gcc/arm-none-eabi/6.3.1/../../../../arm-none-eabi/lib/thumb/v7e-m/libc_nano.a(lib_a-memmove.o)
                              /home/deepika/Tools_controller/gcc-arm-none-eabi-6-2017-q2-update/bin/../lib/gcc/arm-none-eabi/6.3.1/../../../../arm-none-eabi/lib/thumb/v7e-m/libc_nano.a(lib_a-nano-svfprintf.o) (memmove)
/home/deepika/Tools_controller/gcc-arm-none-eabi-6-2017-q2-update/bin/../lib/gcc/arm-none-eabi/6.3.1/../../../../arm-none-eabi/lib/thumb/v7e-m/libc_nano.a(lib_a-nano-freer.o)
                              /home/deepika/Tools_controller/gcc-arm-none-eabi-6-2017-q2-update/bin/../lib/gcc/arm-none-eabi/6.3.1/../../../../arm-none-eabi/lib/thumb/v7e-m/libc_nano.a(lib_a-nano-svfprintf.o) (_free_r)
/home/deepika/Tools_controller/gcc-arm-none-eabi-6-2017-q2-update/bin/../lib/gcc/arm-none-eabi/6.3.1/../../../../arm-none-eabi/lib/thumb/v7e-m/libc_nano.a(lib_a-nano-mallocr.o)
                              /home/deepika/Tools_controller/gcc-arm-none-eabi-6-2017-q2-update/bin/../lib/gcc/arm-none-eabi/6.3.1/../../../../arm-none-eabi/lib/thumb/v7e-m/libc_nano.a(lib_a-nano-svfprintf.o) (_malloc_r)
/home/deepika/Tools_controller/gcc-arm-none-eabi-6-2017-q2-update/bin/../lib/gcc/arm-none-eabi/6.3.1/../../../../arm-none-eabi/lib/thumb/v7e-m/libc_nano.a(lib_a-nano-reallocr.o)
                              /home/deepika/Tools_controller/gcc-arm-none-eabi-6-2017-q2-update/bin/../lib/gcc/arm-none-eabi/6.3.1/../../../../arm-none-eabi/lib/thumb/v7e-m/libc_nano.a(lib_a-nano-svfprintf.o) (_realloc_r)
/home/deepika/Tools_controller/gcc-arm-none-eabi-6-2017-q2-update/bin/../lib/gcc/arm-none-eabi/6.3.1/../../../../arm-none-eabi/lib/thumb/v7e-m/libc_nano.a(lib_a-sbrkr.o)
                              /home/deepika/Tools_controller/gcc-arm-none-eabi-6-2017-q2-update/bin/../lib/gcc/arm-none-eabi/6.3.1/../../../../arm-none-eabi/lib/thumb/v7e-m/libc_nano.a(lib_a-nano-mallocr.o) (_sbrk_r)
/home/deepika/Tools_controller/gcc-arm-none-eabi-6-2017-q2-update/bin/../lib/gcc/arm-none-eabi/6.3.1/../../../../arm-none-eabi/lib/thumb/v7e-m/libc_nano.a(lib_a-mlock.o)
                              /home/deepika/Tools_controller/gcc-arm-none-eabi-6-2017-q2-update/bin/../lib/gcc/arm-none-eabi/6.3.1/../../../../arm-none-eabi/lib/thumb/v7e-m/libc_nano.a(lib_a-nano-freer.o) (__malloc_lock)
/home/deepika/Tools_controller/gcc-arm-none-eabi-6-2017-q2-update/bin/../lib/gcc/arm-none-eabi/6.3.1/../../../../arm-none-eabi/lib/thumb/v7e-m/libc_nano.a(lib_a-nano-msizer.o)
                              /home/deepika/Tools_controller/gcc-arm-none-eabi-6-2017-q2-update/bin/../lib/gcc/arm-none-eabi/6.3.1/../../../../arm-none-eabi/lib/thumb/v7e-m/libc_nano.a(lib_a-nano-reallocr.o) (_malloc_usable_size_r)
/home/deepika/Tools_controller/gcc-arm-none-eabi-6-2017-q2-update/bin/../lib/gcc/arm-none-eabi/6.3.1/../../../../arm-none-eabi/lib/thumb/v7e-m/libc_nano.a(lib_a-reent.o)
                              /home/deepika/Tools_controller/gcc-arm-none-eabi-6-2017-q2-update/bin/../lib/gcc/arm-none-eabi/6.3.1/../../../../arm-none-eabi/lib/thumb/v7e-m/libc_nano.a(lib_a-sbrkr.o) (errno)
/home/deepika/Tools_controller/gcc-arm-none-eabi-6-2017-q2-update/bin/../lib/gcc/arm-none-eabi/6.3.1/thumb/v7e-m/libgcc.a(_arm_addsubdf3.o)
                              CMakeFiles/la9310.dir/drivers/rfic/rfic_synth.c.obj (__aeabi_dsub)
/home/deepika/Tools_controller/gcc-arm-none-eabi-6-2017-q2-update/bin/../lib/gcc/arm-none-eabi/6.3.1/thumb/v7e-m/libgcc.a(_arm_muldivdf3.o)
                              CMakeFiles/la9310.dir/nmm_app.c.obj (__aeabi_dmul)
/home/deepika/Tools_controller/gcc-arm-none-eabi-6-2017-q2-update/bin/../lib/gcc/arm-none-eabi/6.3.1/thumb/v7e-m/libgcc.a(_arm_cmpdf2.o)
                              /home/deepika/Tools_controller/gcc-arm-none-eabi-6-2017-q2-update/bin/../lib/gcc/arm-none-eabi/6.3.1/../../../../arm-none-eabi/lib/thumb/v7e-m/libm.a(lib_a-s_atan.o) (__aeabi_dcmpgt)
/home/deepika/Tools_controller/gcc-arm-none-eabi-6-2017-q2-update/bin/../lib/gcc/arm-none-eabi/6.3.1/thumb/v7e-m/libgcc.a(_arm_fixdfsi.o)
                              CMakeFiles/la9310.dir/drivers/rfic/rfic_synth.c.obj (__aeabi_d2iz)
/home/deepika/Tools_controller/gcc-arm-none-eabi-6-2017-q2-update/bin/../lib/gcc/arm-none-eabi/6.3.1/thumb/v7e-m/libgcc.a(_arm_truncdfsf2.o)
                              CMakeFiles/la9310.dir/nmm_app.c.obj (__aeabi_d2f)
/home/deepika/Tools_controller/gcc-arm-none-eabi-6-2017-q2-update/bin/../lib/gcc/arm-none-eabi/6.3.1/thumb/v7e-m/libgcc.a(_arm_addsubsf3.o)
                              CMakeFiles/la9310.dir/nmm_app.c.obj (__aeabi_fsub)
/home/deepika/Tools_controller/gcc-arm-none-eabi-6-2017-q2-update/bin/../lib/gcc/arm-none-eabi/6.3.1/thumb/v7e-m/libgcc.a(_arm_muldivsf3.o)
                              CMakeFiles/la9310.dir/nmm_app.c.obj (__aeabi_fmul)
/home/deepika/Tools_controller/gcc-arm-none-eabi-6-2017-q2-update/bin/../lib/gcc/arm-none-eabi/6.3.1/thumb/v7e-m/libgcc.a(_arm_fixsfsi.o)
                              CMakeFiles/la9310.dir/nmm_app.c.obj (__aeabi_f2iz)
/home/deepika/Tools_controller/gcc-arm-none-eabi-6-2017-q2-update/bin/../lib/gcc/arm-none-eabi/6.3.1/../../../../arm-none-eabi/lib/thumb/v7e-m/libnosys.a(sbrk.o)
                              /home/deepika/Tools_controller/gcc-arm-none-eabi-6-2017-q2-update/bin/../lib/gcc/arm-none-eabi/6.3.1/../../../../arm-none-eabi/lib/thumb/v7e-m/libc_nano.a(lib_a-sbrkr.o) (_sbrk)
/home/deepika/Tools_controller/gcc-arm-none-eabi-6-2017-q2-update/bin/../lib/gcc/arm-none-eabi/6.3.1/../../../../arm-none-eabi/lib/thumb/v7e-m/libnosys.a(_exit.o)
                              /home/deepika/Tools_controller/gcc-arm-none-eabi-6-2017-q2-update/bin/../lib/gcc/arm-none-eabi/6.3.1/../../../../arm-none-eabi/lib/thumb/v7e-m/libc_nano.a(lib_a-exit.o) (_exit)

Allocating common symbols
Common symbol       size              file

errno               0x4               /home/deepika/Tools_controller/gcc-arm-none-eabi-6-2017-q2-update/bin/../lib/gcc/arm-none-eabi/6.3.1/../../../../arm-none-eabi/lib/thumb/v7e-m/libc_nano.a(lib_a-reent.o)

Discarded input sections

 .text          0x0000000000000000        0x0 /home/deepika/Tools_controller/gcc-arm-none-eabi-6-2017-q2-update/bin/../lib/gcc/arm-none-eabi/6.3.1/thumb/v7e-m/crti.o
 .data          0x0000000000000000        0x0 /home/deepika/Tools_controller/gcc-arm-none-eabi-6-2017-q2-update/bin/../lib/gcc/arm-none-eabi/6.3.1/thumb/v7e-m/crti.o
 .bss           0x0000000000000000        0x0 /home/deepika/Tools_controller/gcc-arm-none-eabi-6-2017-q2-update/bin/../lib/gcc/arm-none-eabi/6.3.1/thumb/v7e-m/crti.o
 .data          0x0000000000000000        0x4 /home/deepika/Tools_controller/gcc-arm-none-eabi-6-2017-q2-update/bin/../lib/gcc/arm-none-eabi/6.3.1/thumb/v7e-m/crtbegin.o
 .data          0x0000000000000000        0x0 /home/deepika/Tools_controller/gcc-arm-none-eabi-6-2017-q2-update/bin/../lib/gcc/arm-none-eabi/6.3.1/../../../../arm-none-eabi/lib/thumb/v7e-m/crt0.o
 .bss           0x0000000000000000        0x0 /home/deepika/Tools_controller/gcc-arm-none-eabi-6-2017-q2-update/bin/../lib/gcc/arm-none-eabi/6.3.1/../../../../arm-none-eabi/lib/thumb/v7e-m/crt0.o
 .ARM.extab     0x0000000000000000        0x0 /home/deepika/Tools_controller/gcc-arm-none-eabi-6-2017-q2-update/bin/../lib/gcc/arm-none-eabi/6.3.1/../../../../arm-none-eabi/lib/thumb/v7e-m/crt0.o
 .text          0x0000000000000000        0x0 CMakeFiles/la9310.dir/home/deepika/21_sept_macro_changes/PS_NLM_5G_LAT/nlm_controller/Source/portable/GCC/ARM_CM4/port.c.obj
 .data          0x0000000000000000        0x0 CMakeFiles/la9310.dir/home/deepika/21_sept_macro_changes/PS_NLM_5G_LAT/nlm_controller/Source/portable/GCC/ARM_CM4/port.c.obj
 .bss           0x0000000000000000        0x0 CMakeFiles/la9310.dir/home/deepika/21_sept_macro_changes/PS_NLM_5G_LAT/nlm_controller/Source/portable/GCC/ARM_CM4/port.c.obj
 .text.vPortEndScheduler
                0x0000000000000000       0x24 CMakeFiles/la9310.dir/home/deepika/21_sept_macro_changes/PS_NLM_5G_LAT/nlm_controller/Source/portable/GCC/ARM_CM4/port.c.obj
 .text          0x0000000000000000        0x0 CMakeFiles/la9310.dir/home/deepika/21_sept_macro_changes/PS_NLM_5G_LAT/nlm_controller/Source/portable/MemMang/heap_2.c.obj
 .data          0x0000000000000000        0x0 CMakeFiles/la9310.dir/home/deepika/21_sept_macro_changes/PS_NLM_5G_LAT/nlm_controller/Source/portable/MemMang/heap_2.c.obj
 .bss           0x0000000000000000        0x0 CMakeFiles/la9310.dir/home/deepika/21_sept_macro_changes/PS_NLM_5G_LAT/nlm_controller/Source/portable/MemMang/heap_2.c.obj
 .text.xPortGetFreeHeapSize
                0x0000000000000000        0xc CMakeFiles/la9310.dir/home/deepika/21_sept_macro_changes/PS_NLM_5G_LAT/nlm_controller/Source/portable/MemMang/heap_2.c.obj
 .text.vPortInitialiseBlocks
                0x0000000000000000        0x2 CMakeFiles/la9310.dir/home/deepika/21_sept_macro_changes/PS_NLM_5G_LAT/nlm_controller/Source/portable/MemMang/heap_2.c.obj
 .text          0x0000000000000000        0x0 CMakeFiles/la9310.dir/home/deepika/21_sept_macro_changes/PS_NLM_5G_LAT/nlm_controller/Source/croutine.c.obj
 .data          0x0000000000000000        0x0 CMakeFiles/la9310.dir/home/deepika/21_sept_macro_changes/PS_NLM_5G_LAT/nlm_controller/Source/croutine.c.obj
 .bss           0x0000000000000000        0x0 CMakeFiles/la9310.dir/home/deepika/21_sept_macro_changes/PS_NLM_5G_LAT/nlm_controller/Source/croutine.c.obj
 .debug_info    0x0000000000000000       0x6e CMakeFiles/la9310.dir/home/deepika/21_sept_macro_changes/PS_NLM_5G_LAT/nlm_controller/Source/croutine.c.obj
 .debug_abbrev  0x0000000000000000       0x24 CMakeFiles/la9310.dir/home/deepika/21_sept_macro_changes/PS_NLM_5G_LAT/nlm_controller/Source/croutine.c.obj
 .debug_aranges
                0x0000000000000000       0x18 CMakeFiles/la9310.dir/home/deepika/21_sept_macro_changes/PS_NLM_5G_LAT/nlm_controller/Source/croutine.c.obj
 .debug_line    0x0000000000000000       0x1d CMakeFiles/la9310.dir/home/deepika/21_sept_macro_changes/PS_NLM_5G_LAT/nlm_controller/Source/croutine.c.obj
 .debug_str     0x0000000000000000      0x1d9 CMakeFiles/la9310.dir/home/deepika/21_sept_macro_changes/PS_NLM_5G_LAT/nlm_controller/Source/croutine.c.obj
 .comment       0x0000000000000000       0x80 CMakeFiles/la9310.dir/home/deepika/21_sept_macro_changes/PS_NLM_5G_LAT/nlm_controller/Source/croutine.c.obj
 .ARM.attributes
                0x0000000000000000       0x33 CMakeFiles/la9310.dir/home/deepika/21_sept_macro_changes/PS_NLM_5G_LAT/nlm_controller/Source/croutine.c.obj
 .text          0x0000000000000000        0x0 CMakeFiles/la9310.dir/home/deepika/21_sept_macro_changes/PS_NLM_5G_LAT/nlm_controller/Source/event_groups.c.obj
 .data          0x0000000000000000        0x0 CMakeFiles/la9310.dir/home/deepika/21_sept_macro_changes/PS_NLM_5G_LAT/nlm_controller/Source/event_groups.c.obj
 .bss           0x0000000000000000        0x0 CMakeFiles/la9310.dir/home/deepika/21_sept_macro_changes/PS_NLM_5G_LAT/nlm_controller/Source/event_groups.c.obj
 .text.xEventGroupClearBits
                0x0000000000000000       0x46 CMakeFiles/la9310.dir/home/deepika/21_sept_macro_changes/PS_NLM_5G_LAT/nlm_controller/Source/event_groups.c.obj
 .text.xEventGroupGetBitsFromISR
                0x0000000000000000       0x1c CMakeFiles/la9310.dir/home/deepika/21_sept_macro_changes/PS_NLM_5G_LAT/nlm_controller/Source/event_groups.c.obj
 .text.xEventGroupSync
                0x0000000000000000       0xd0 CMakeFiles/la9310.dir/home/deepika/21_sept_macro_changes/PS_NLM_5G_LAT/nlm_controller/Source/event_groups.c.obj
 .text.vEventGroupDelete
                0x0000000000000000       0x40 CMakeFiles/la9310.dir/home/deepika/21_sept_macro_changes/PS_NLM_5G_LAT/nlm_controller/Source/event_groups.c.obj
 .text.vEventGroupClearBitsCallback
                0x0000000000000000        0x4 CMakeFiles/la9310.dir/home/deepika/21_sept_macro_changes/PS_NLM_5G_LAT/nlm_controller/Source/event_groups.c.obj
 .text          0x0000000000000000        0x0 CMakeFiles/la9310.dir/home/deepika/21_sept_macro_changes/PS_NLM_5G_LAT/nlm_controller/Source/list.c.obj
 .data          0x0000000000000000        0x0 CMakeFiles/la9310.dir/home/deepika/21_sept_macro_changes/PS_NLM_5G_LAT/nlm_controller/Source/list.c.obj
 .bss           0x0000000000000000        0x0 CMakeFiles/la9310.dir/home/deepika/21_sept_macro_changes/PS_NLM_5G_LAT/nlm_controller/Source/list.c.obj
 .text          0x0000000000000000        0x0 CMakeFiles/la9310.dir/home/deepika/21_sept_macro_changes/PS_NLM_5G_LAT/nlm_controller/Source/queue.c.obj
 .data          0x0000000000000000        0x0 CMakeFiles/la9310.dir/home/deepika/21_sept_macro_changes/PS_NLM_5G_LAT/nlm_controller/Source/queue.c.obj
 .bss           0x0000000000000000        0x0 CMakeFiles/la9310.dir/home/deepika/21_sept_macro_changes/PS_NLM_5G_LAT/nlm_controller/Source/queue.c.obj
 .text.xQueuePeekFromISR
                0x0000000000000000       0x78 CMakeFiles/la9310.dir/home/deepika/21_sept_macro_changes/PS_NLM_5G_LAT/nlm_controller/Source/queue.c.obj
 .text.uxQueueMessagesWaiting
                0x0000000000000000       0x26 CMakeFiles/la9310.dir/home/deepika/21_sept_macro_changes/PS_NLM_5G_LAT/nlm_controller/Source/queue.c.obj
 .text.uxQueueSpacesAvailable
                0x0000000000000000       0x2a CMakeFiles/la9310.dir/home/deepika/21_sept_macro_changes/PS_NLM_5G_LAT/nlm_controller/Source/queue.c.obj
 .text.xQueueIsQueueEmptyFromISR
                0x0000000000000000       0x1e CMakeFiles/la9310.dir/home/deepika/21_sept_macro_changes/PS_NLM_5G_LAT/nlm_controller/Source/queue.c.obj
 .text.xQueueIsQueueFullFromISR
                0x0000000000000000       0x20 CMakeFiles/la9310.dir/home/deepika/21_sept_macro_changes/PS_NLM_5G_LAT/nlm_controller/Source/queue.c.obj
 .text.pcQueueGetName
                0x0000000000000000       0x24 CMakeFiles/la9310.dir/home/deepika/21_sept_macro_changes/PS_NLM_5G_LAT/nlm_controller/Source/queue.c.obj
 .text.vQueueUnregisterQueue
                0x0000000000000000       0x28 CMakeFiles/la9310.dir/home/deepika/21_sept_macro_changes/PS_NLM_5G_LAT/nlm_controller/Source/queue.c.obj
 .text.vQueueDelete
                0x0000000000000000       0x26 CMakeFiles/la9310.dir/home/deepika/21_sept_macro_changes/PS_NLM_5G_LAT/nlm_controller/Source/queue.c.obj
 .text.xQueueCreateSet
                0x0000000000000000        0x8 CMakeFiles/la9310.dir/home/deepika/21_sept_macro_changes/PS_NLM_5G_LAT/nlm_controller/Source/queue.c.obj
 .text.xQueueAddToSet
                0x0000000000000000       0x22 CMakeFiles/la9310.dir/home/deepika/21_sept_macro_changes/PS_NLM_5G_LAT/nlm_controller/Source/queue.c.obj
 .text.xQueueRemoveFromSet
                0x0000000000000000       0x20 CMakeFiles/la9310.dir/home/deepika/21_sept_macro_changes/PS_NLM_5G_LAT/nlm_controller/Source/queue.c.obj
 .text.xQueueSelectFromSet
                0x0000000000000000       0x18 CMakeFiles/la9310.dir/home/deepika/21_sept_macro_changes/PS_NLM_5G_LAT/nlm_controller/Source/queue.c.obj
 .text.xQueueSelectFromSetFromISR
                0x0000000000000000       0x16 CMakeFiles/la9310.dir/home/deepika/21_sept_macro_changes/PS_NLM_5G_LAT/nlm_controller/Source/queue.c.obj
 .text          0x0000000000000000        0x0 CMakeFiles/la9310.dir/home/deepika/21_sept_macro_changes/PS_NLM_5G_LAT/nlm_controller/Source/tasks.c.obj
 .data          0x0000000000000000        0x0 CMakeFiles/la9310.dir/home/deepika/21_sept_macro_changes/PS_NLM_5G_LAT/nlm_controller/Source/tasks.c.obj
 .bss           0x0000000000000000        0x0 CMakeFiles/la9310.dir/home/deepika/21_sept_macro_changes/PS_NLM_5G_LAT/nlm_controller/Source/tasks.c.obj
 .text.prvTaskIsTaskSuspended
                0x0000000000000000       0x2c CMakeFiles/la9310.dir/home/deepika/21_sept_macro_changes/PS_NLM_5G_LAT/nlm_controller/Source/tasks.c.obj
 .text.uxTaskPriorityGet
                0x0000000000000000       0x1c CMakeFiles/la9310.dir/home/deepika/21_sept_macro_changes/PS_NLM_5G_LAT/nlm_controller/Source/tasks.c.obj
 .text.uxTaskPriorityGetFromISR
                0x0000000000000000       0x30 CMakeFiles/la9310.dir/home/deepika/21_sept_macro_changes/PS_NLM_5G_LAT/nlm_controller/Source/tasks.c.obj
 .text.vTaskPrioritySet
                0x0000000000000000       0xd8 CMakeFiles/la9310.dir/home/deepika/21_sept_macro_changes/PS_NLM_5G_LAT/nlm_controller/Source/tasks.c.obj
 .text.vTaskResume
                0x0000000000000000       0x84 CMakeFiles/la9310.dir/home/deepika/21_sept_macro_changes/PS_NLM_5G_LAT/nlm_controller/Source/tasks.c.obj
 .text.xTaskResumeFromISR
                0x0000000000000000       0xa0 CMakeFiles/la9310.dir/home/deepika/21_sept_macro_changes/PS_NLM_5G_LAT/nlm_controller/Source/tasks.c.obj
 .text.vTaskEndScheduler
                0x0000000000000000       0x20 CMakeFiles/la9310.dir/home/deepika/21_sept_macro_changes/PS_NLM_5G_LAT/nlm_controller/Source/tasks.c.obj
 .text.uxTaskGetNumberOfTasks
                0x0000000000000000        0xc CMakeFiles/la9310.dir/home/deepika/21_sept_macro_changes/PS_NLM_5G_LAT/nlm_controller/Source/tasks.c.obj
 .text.pcTaskGetName
                0x0000000000000000       0x24 CMakeFiles/la9310.dir/home/deepika/21_sept_macro_changes/PS_NLM_5G_LAT/nlm_controller/Source/tasks.c.obj
 .text.vTaskSuspend
                0x0000000000000000       0xcc CMakeFiles/la9310.dir/home/deepika/21_sept_macro_changes/PS_NLM_5G_LAT/nlm_controller/Source/tasks.c.obj
 .text.xTaskGetCurrentTaskHandle
                0x0000000000000000        0xc CMakeFiles/la9310.dir/home/deepika/21_sept_macro_changes/PS_NLM_5G_LAT/nlm_controller/Source/tasks.c.obj
 .text.ulTaskNotifyTake
                0x0000000000000000       0x64 CMakeFiles/la9310.dir/home/deepika/21_sept_macro_changes/PS_NLM_5G_LAT/nlm_controller/Source/tasks.c.obj
 .text.xTaskNotifyWait
                0x0000000000000000       0x8c CMakeFiles/la9310.dir/home/deepika/21_sept_macro_changes/PS_NLM_5G_LAT/nlm_controller/Source/tasks.c.obj
 .text.xTaskGenericNotify
                0x0000000000000000       0xd0 CMakeFiles/la9310.dir/home/deepika/21_sept_macro_changes/PS_NLM_5G_LAT/nlm_controller/Source/tasks.c.obj
 .text.xTaskGenericNotifyFromISR
                0x0000000000000000      0x104 CMakeFiles/la9310.dir/home/deepika/21_sept_macro_changes/PS_NLM_5G_LAT/nlm_controller/Source/tasks.c.obj
 .text.vTaskNotifyGiveFromISR
                0x0000000000000000       0xcc CMakeFiles/la9310.dir/home/deepika/21_sept_macro_changes/PS_NLM_5G_LAT/nlm_controller/Source/tasks.c.obj
 .text.xTaskNotifyStateClear
                0x0000000000000000       0x30 CMakeFiles/la9310.dir/home/deepika/21_sept_macro_changes/PS_NLM_5G_LAT/nlm_controller/Source/tasks.c.obj
 .text          0x0000000000000000        0x0 CMakeFiles/la9310.dir/home/deepika/21_sept_macro_changes/PS_NLM_5G_LAT/nlm_controller/Source/timers.c.obj
 .data          0x0000000000000000        0x0 CMakeFiles/la9310.dir/home/deepika/21_sept_macro_changes/PS_NLM_5G_LAT/nlm_controller/Source/timers.c.obj
 .bss           0x0000000000000000        0x0 CMakeFiles/la9310.dir/home/deepika/21_sept_macro_changes/PS_NLM_5G_LAT/nlm_controller/Source/timers.c.obj
 .text.xTimerGetTimerDaemonTaskHandle
                0x0000000000000000       0x20 CMakeFiles/la9310.dir/home/deepika/21_sept_macro_changes/PS_NLM_5G_LAT/nlm_controller/Source/timers.c.obj
 .text.xTimerGetPeriod
                0x0000000000000000       0x18 CMakeFiles/la9310.dir/home/deepika/21_sept_macro_changes/PS_NLM_5G_LAT/nlm_controller/Source/timers.c.obj
 .text.xTimerGetExpiryTime
                0x0000000000000000       0x18 CMakeFiles/la9310.dir/home/deepika/21_sept_macro_changes/PS_NLM_5G_LAT/nlm_controller/Source/timers.c.obj
 .text.pcTimerGetName
                0x0000000000000000       0x18 CMakeFiles/la9310.dir/home/deepika/21_sept_macro_changes/PS_NLM_5G_LAT/nlm_controller/Source/timers.c.obj
 .text.xTimerPendFunctionCall
                0x0000000000000000       0x40 CMakeFiles/la9310.dir/home/deepika/21_sept_macro_changes/PS_NLM_5G_LAT/nlm_controller/Source/timers.c.obj
 .text          0x0000000000000000        0x0 CMakeFiles/la9310.dir/drivers/serial/debug_console.c.obj
 .data          0x0000000000000000        0x0 CMakeFiles/la9310.dir/drivers/serial/debug_console.c.obj
 .bss           0x0000000000000000        0x0 CMakeFiles/la9310.dir/drivers/serial/debug_console.c.obj
 .text          0x0000000000000000        0x0 CMakeFiles/la9310.dir/drivers/serial/print_scan.c.obj
 .data          0x0000000000000000        0x0 CMakeFiles/la9310.dir/drivers/serial/print_scan.c.obj
 .bss           0x0000000000000000        0x0 CMakeFiles/la9310.dir/drivers/serial/print_scan.c.obj
 .text.scan_ignore_white_space
                0x0000000000000000       0x20 CMakeFiles/la9310.dir/drivers/serial/print_scan.c.obj
 .text._sputc   0x0000000000000000        0xa CMakeFiles/la9310.dir/drivers/serial/print_scan.c.obj
 .text.scan_prv
                0x0000000000000000      0x2fc CMakeFiles/la9310.dir/drivers/serial/print_scan.c.obj
 .text          0x0000000000000000        0x0 CMakeFiles/la9310.dir/drivers/serial/serial_ns16550.c.obj
 .data          0x0000000000000000        0x0 CMakeFiles/la9310.dir/drivers/serial/serial_ns16550.c.obj
 .bss           0x0000000000000000        0x0 CMakeFiles/la9310.dir/drivers/serial/serial_ns16550.c.obj
 .text          0x0000000000000000        0x0 CMakeFiles/la9310.dir/drivers/serial/nmm_logging.c.obj
 .data          0x0000000000000000        0x0 CMakeFiles/la9310.dir/drivers/serial/nmm_logging.c.obj
 .bss           0x0000000000000000        0x0 CMakeFiles/la9310.dir/drivers/serial/nmm_logging.c.obj
 .text          0x0000000000000000        0x0 CMakeFiles/la9310.dir/drivers/edma/la9310_edma.c.obj
 .data          0x0000000000000000        0x0 CMakeFiles/la9310.dir/drivers/edma/la9310_edma.c.obj
 .bss           0x0000000000000000        0x0 CMakeFiles/la9310.dir/drivers/edma/la9310_edma.c.obj
 .text          0x0000000000000000        0x0 CMakeFiles/la9310.dir/drivers/misc/mem_log.c.obj
 .data          0x0000000000000000        0x0 CMakeFiles/la9310.dir/drivers/misc/mem_log.c.obj
 .bss           0x0000000000000000        0x0 CMakeFiles/la9310.dir/drivers/misc/mem_log.c.obj
 .text          0x0000000000000000        0x0 CMakeFiles/la9310.dir/drivers/watchdog/la9310_watchdog.c.obj
 .data          0x0000000000000000        0x0 CMakeFiles/la9310.dir/drivers/watchdog/la9310_watchdog.c.obj
 .bss           0x0000000000000000        0x0 CMakeFiles/la9310.dir/drivers/watchdog/la9310_watchdog.c.obj
 .text.iWdogEnable
                0x0000000000000000       0xb8 CMakeFiles/la9310.dir/drivers/watchdog/la9310_watchdog.c.obj
 .text.vWdogDisable
                0x0000000000000000       0x44 CMakeFiles/la9310.dir/drivers/watchdog/la9310_watchdog.c.obj
 .text.vWdogReload
                0x0000000000000000       0x64 CMakeFiles/la9310.dir/drivers/watchdog/la9310_watchdog.c.obj
 .bss.load_value
                0x0000000000000000        0x4 CMakeFiles/la9310.dir/drivers/watchdog/la9310_watchdog.c.obj
 .bss.pEdmaGlb  0x0000000000000000       0x38 CMakeFiles/la9310.dir/drivers/watchdog/la9310_watchdog.c.obj
 .rodata.__func__.6410
                0x0000000000000000        0xd CMakeFiles/la9310.dir/drivers/watchdog/la9310_watchdog.c.obj
 .rodata.__func__.6416
                0x0000000000000000        0xc CMakeFiles/la9310.dir/drivers/watchdog/la9310_watchdog.c.obj
 .rodata.vWdogDisable.str1.1
                0x0000000000000000       0x13 CMakeFiles/la9310.dir/drivers/watchdog/la9310_watchdog.c.obj
 .rodata.vWdogReload.str1.1
                0x0000000000000000       0x12 CMakeFiles/la9310.dir/drivers/watchdog/la9310_watchdog.c.obj
 .text          0x0000000000000000        0x0 CMakeFiles/la9310.dir/platform/ARM_CM4/soc.c.obj
 .data          0x0000000000000000        0x0 CMakeFiles/la9310.dir/platform/ARM_CM4/soc.c.obj
 .bss           0x0000000000000000        0x0 CMakeFiles/la9310.dir/platform/ARM_CM4/soc.c.obj
 .data          0x0000000000000000        0x0 CMakeFiles/la9310.dir/platform/ARM_CM4/start.S.obj
 .bss           0x0000000000000000        0x0 CMakeFiles/la9310.dir/platform/ARM_CM4/start.S.obj
 .text          0x0000000000000000        0x0 CMakeFiles/la9310.dir/platform/boards/la9310/board.c.obj
 .data          0x0000000000000000        0x0 CMakeFiles/la9310.dir/platform/boards/la9310/board.c.obj
 .bss           0x0000000000000000        0x0 CMakeFiles/la9310.dir/platform/boards/la9310/board.c.obj
 .text          0x0000000000000000        0x0 CMakeFiles/la9310.dir/platform/ARM_CM4/exceptions.c.obj
 .data          0x0000000000000000        0x0 CMakeFiles/la9310.dir/platform/ARM_CM4/exceptions.c.obj
 .bss           0x0000000000000000        0x0 CMakeFiles/la9310.dir/platform/ARM_CM4/exceptions.c.obj
 .text          0x0000000000000000        0x0 CMakeFiles/la9310.dir/platform/boards/la9310/hardware_init.c.obj
 .data          0x0000000000000000        0x0 CMakeFiles/la9310.dir/platform/boards/la9310/hardware_init.c.obj
 .bss           0x0000000000000000        0x0 CMakeFiles/la9310.dir/platform/boards/la9310/hardware_init.c.obj
 .text          0x0000000000000000        0x0 CMakeFiles/la9310.dir/main.c.obj
 .data          0x0000000000000000        0x0 CMakeFiles/la9310.dir/main.c.obj
 .bss           0x0000000000000000        0x0 CMakeFiles/la9310.dir/main.c.obj
 .bss.pEdmaGlb  0x0000000000000000       0x38 CMakeFiles/la9310.dir/main.c.obj
 .text          0x0000000000000000        0x0 CMakeFiles/la9310.dir/cmd_ctrl_vspa_intfce.c.obj
 .data          0x0000000000000000        0x0 CMakeFiles/la9310.dir/cmd_ctrl_vspa_intfce.c.obj
 .bss           0x0000000000000000        0x0 CMakeFiles/la9310.dir/cmd_ctrl_vspa_intfce.c.obj
 .text          0x0000000000000000        0x0 CMakeFiles/la9310.dir/nmm_avi.c.obj
 .data          0x0000000000000000        0x0 CMakeFiles/la9310.dir/nmm_avi.c.obj
 .bss           0x0000000000000000        0x0 CMakeFiles/la9310.dir/nmm_avi.c.obj
 .text          0x0000000000000000        0x0 CMakeFiles/la9310.dir/nmm_app.c.obj
 .data          0x0000000000000000        0x0 CMakeFiles/la9310.dir/nmm_app.c.obj
 .bss           0x0000000000000000        0x0 CMakeFiles/la9310.dir/nmm_app.c.obj
 .text.prvCellFollowAdjust
                0x0000000000000000       0xe8 CMakeFiles/la9310.dir/nmm_app.c.obj
 .text.getCrtFreq
                0x0000000000000000        0xc CMakeFiles/la9310.dir/nmm_app.c.obj
 .bss.pEdmaGlb  0x0000000000000000       0x38 CMakeFiles/la9310.dir/nmm_app.c.obj
 .rodata.__func__.7906
                0x0000000000000000       0x14 CMakeFiles/la9310.dir/nmm_app.c.obj
 .rodata.prvCellFollowAdjust.str1.1
                0x0000000000000000       0x5a CMakeFiles/la9310.dir/nmm_app.c.obj
 .text          0x0000000000000000        0x0 CMakeFiles/la9310.dir/la9310_irq.c.obj
 .data          0x0000000000000000        0x0 CMakeFiles/la9310.dir/la9310_irq.c.obj
 .bss           0x0000000000000000        0x0 CMakeFiles/la9310.dir/la9310_irq.c.obj
 .text.iLa9310RaiseIrqEvt
                0x0000000000000000       0xbc CMakeFiles/la9310.dir/la9310_irq.c.obj
 .bss.pEdmaGlb  0x0000000000000000       0x38 CMakeFiles/la9310.dir/la9310_irq.c.obj
 .rodata.__func__.6429
                0x0000000000000000       0x13 CMakeFiles/la9310.dir/la9310_irq.c.obj
 .text          0x0000000000000000        0x0 CMakeFiles/la9310.dir/la9310_v2h_test.c.obj
 .data          0x0000000000000000        0x0 CMakeFiles/la9310.dir/la9310_v2h_test.c.obj
 .bss           0x0000000000000000        0x0 CMakeFiles/la9310.dir/la9310_v2h_test.c.obj
 .text.printBDRing
                0x0000000000000000       0x80 CMakeFiles/la9310.dir/la9310_v2h_test.c.obj
 .text.copyFrame
                0x0000000000000000       0x80 CMakeFiles/la9310.dir/la9310_v2h_test.c.obj
 .text.vV2HDemo
                0x0000000000000000      0x154 CMakeFiles/la9310.dir/la9310_v2h_test.c.obj
 .bss.headPointer
                0x0000000000000000        0x4 CMakeFiles/la9310.dir/la9310_v2h_test.c.obj
 .rodata.__func__.6420
                0x0000000000000000        0x9 CMakeFiles/la9310.dir/la9310_v2h_test.c.obj
 .rodata.copyFrame.str1.1
                0x0000000000000000       0x28 CMakeFiles/la9310.dir/la9310_v2h_test.c.obj
 .rodata.printBDRing.str1.1
                0x0000000000000000       0x73 CMakeFiles/la9310.dir/la9310_v2h_test.c.obj
 .rodata.vV2HDemo.str1.1
                0x0000000000000000       0x3d CMakeFiles/la9310.dir/la9310_v2h_test.c.obj
 .debug_info    0x0000000000000000     0x1987 CMakeFiles/la9310.dir/la9310_v2h_test.c.obj
 .debug_abbrev  0x0000000000000000      0x334 CMakeFiles/la9310.dir/la9310_v2h_test.c.obj
 .debug_loc     0x0000000000000000      0x44c CMakeFiles/la9310.dir/la9310_v2h_test.c.obj
 .debug_aranges
                0x0000000000000000       0x30 CMakeFiles/la9310.dir/la9310_v2h_test.c.obj
 .debug_ranges  0x0000000000000000       0xe0 CMakeFiles/la9310.dir/la9310_v2h_test.c.obj
 .debug_line    0x0000000000000000      0x60e CMakeFiles/la9310.dir/la9310_v2h_test.c.obj
 .debug_str     0x0000000000000000     0x1305 CMakeFiles/la9310.dir/la9310_v2h_test.c.obj
 .comment       0x0000000000000000       0x80 CMakeFiles/la9310.dir/la9310_v2h_test.c.obj
 .debug_frame   0x0000000000000000       0x88 CMakeFiles/la9310.dir/la9310_v2h_test.c.obj
 .ARM.attributes
                0x0000000000000000       0x33 CMakeFiles/la9310.dir/la9310_v2h_test.c.obj
 .text          0x0000000000000000        0x0 CMakeFiles/la9310.dir/drivers/misc/bbdev_ipc.c.obj
 .data          0x0000000000000000        0x0 CMakeFiles/la9310.dir/drivers/misc/bbdev_ipc.c.obj
 .bss           0x0000000000000000        0x0 CMakeFiles/la9310.dir/drivers/misc/bbdev_ipc.c.obj
 .text          0x0000000000000000        0x0 CMakeFiles/la9310.dir/drivers/avi/la9310_avi.c.obj
 .data          0x0000000000000000        0x0 CMakeFiles/la9310.dir/drivers/avi/la9310_avi.c.obj
 .bss           0x0000000000000000        0x0 CMakeFiles/la9310.dir/drivers/avi/la9310_avi.c.obj
 .text.La9310VSPA_IRQDefaultHandler
                0x0000000000000000       0x34 CMakeFiles/la9310.dir/drivers/avi/la9310_avi.c.obj
 .text.iLa9310AviVspaHwVer
                0x0000000000000000       0x24 CMakeFiles/la9310.dir/drivers/avi/la9310_avi.c.obj
 .text.iLa9310AviClose
                0x0000000000000000      0x1b4 CMakeFiles/la9310.dir/drivers/avi/la9310_avi.c.obj
 .text.iLa9310VspaInit
                0x0000000000000000       0x58 CMakeFiles/la9310.dir/drivers/avi/la9310_avi.c.obj
 .rodata.La9310VSPA_IRQDefaultHandler.str1.1
                0x0000000000000000       0x20 CMakeFiles/la9310.dir/drivers/avi/la9310_avi.c.obj
 .rodata.__func__.6738
                0x0000000000000000       0x1d CMakeFiles/la9310.dir/drivers/avi/la9310_avi.c.obj
 .rodata.__func__.6800
                0x0000000000000000       0x10 CMakeFiles/la9310.dir/drivers/avi/la9310_avi.c.obj
 .rodata.__func__.6829
                0x0000000000000000       0x10 CMakeFiles/la9310.dir/drivers/avi/la9310_avi.c.obj
 .rodata.iLa9310AviClose.str1.1
                0x0000000000000000      0x1be CMakeFiles/la9310.dir/drivers/avi/la9310_avi.c.obj
 .rodata.iLa9310AviVspaHwVer.str1.1
                0x0000000000000000       0x1a CMakeFiles/la9310.dir/drivers/avi/la9310_avi.c.obj
 .text          0x0000000000000000        0x0 CMakeFiles/la9310.dir/drivers/misc/la9310_gpio.c.obj
 .data          0x0000000000000000        0x0 CMakeFiles/la9310.dir/drivers/misc/la9310_gpio.c.obj
 .bss           0x0000000000000000        0x0 CMakeFiles/la9310.dir/drivers/misc/la9310_gpio.c.obj
 .text.iGpioGetData
                0x0000000000000000       0x4c CMakeFiles/la9310.dir/drivers/misc/la9310_gpio.c.obj
 .text.iGpioSetBit
                0x0000000000000000       0x54 CMakeFiles/la9310.dir/drivers/misc/la9310_gpio.c.obj
 .bss.gpioports
                0x0000000000000000       0x1c CMakeFiles/la9310.dir/drivers/misc/la9310_gpio.c.obj
 .rodata.iGpioGetData.str1.1
                0x0000000000000000       0x33 CMakeFiles/la9310.dir/drivers/misc/la9310_gpio.c.obj
 .rodata.iGpioSetBit.str1.1
                0x0000000000000000       0x34 CMakeFiles/la9310.dir/drivers/misc/la9310_gpio.c.obj
 .text          0x0000000000000000        0x0 CMakeFiles/la9310.dir/drivers/misc/la9310_pinmux.c.obj
 .data          0x0000000000000000        0x0 CMakeFiles/la9310.dir/drivers/misc/la9310_pinmux.c.obj
 .bss           0x0000000000000000        0x0 CMakeFiles/la9310.dir/drivers/misc/la9310_pinmux.c.obj
 .text.vGpioSetPinMux
                0x0000000000000000       0x18 CMakeFiles/la9310.dir/drivers/misc/la9310_pinmux.c.obj
 .text          0x0000000000000000        0x0 CMakeFiles/la9310.dir/drivers/i2c/la9310_i2c.c.obj
 .data          0x0000000000000000        0x0 CMakeFiles/la9310.dir/drivers/i2c/la9310_i2c.c.obj
 .bss           0x0000000000000000        0x0 CMakeFiles/la9310.dir/drivers/i2c/la9310_i2c.c.obj
 .text.iLa9310_I2C_Disable
                0x0000000000000000       0x2c CMakeFiles/la9310.dir/drivers/i2c/la9310_i2c.c.obj
 .rodata.iLa9310_I2C_Disable.str1.1
                0x0000000000000000       0x2b CMakeFiles/la9310.dir/drivers/i2c/la9310_i2c.c.obj
 .text          0x0000000000000000        0x0 CMakeFiles/la9310.dir/drivers/pcie/la9310_pcie.c.obj
 .data          0x0000000000000000        0x0 CMakeFiles/la9310.dir/drivers/pcie/la9310_pcie.c.obj
 .bss           0x0000000000000000        0x0 CMakeFiles/la9310.dir/drivers/pcie/la9310_pcie.c.obj
 .text.vLA9310DumpPCIeRegs
                0x0000000000000000      0x12c CMakeFiles/la9310.dir/drivers/pcie/la9310_pcie.c.obj
 .text.vLa9310PcieiAtuOutboundSet
                0x0000000000000000       0x70 CMakeFiles/la9310.dir/drivers/pcie/la9310_pcie.c.obj
 .rodata.vLA9310DumpPCIeRegs.str1.1
                0x0000000000000000       0x2b CMakeFiles/la9310.dir/drivers/pcie/la9310_pcie.c.obj
 .rodata.vLa9310PcieiAtuOutboundSet.str1.1
                0x0000000000000000       0x37 CMakeFiles/la9310.dir/drivers/pcie/la9310_pcie.c.obj
 .text          0x0000000000000000        0x0 CMakeFiles/la9310.dir/drivers/dspi/fsl_dspi.c.obj
 .data          0x0000000000000000        0x0 CMakeFiles/la9310.dir/drivers/dspi/fsl_dspi.c.obj
 .bss           0x0000000000000000        0x0 CMakeFiles/la9310.dir/drivers/dspi/fsl_dspi.c.obj
 .text.vDspiExit
                0x0000000000000000       0x14 CMakeFiles/la9310.dir/drivers/dspi/fsl_dspi.c.obj
 .text          0x0000000000000000        0x0 CMakeFiles/la9310.dir/drivers/dspi/dspi_test.c.obj
 .data          0x0000000000000000        0x0 CMakeFiles/la9310.dir/drivers/dspi/dspi_test.c.obj
 .bss           0x0000000000000000        0x0 CMakeFiles/la9310.dir/drivers/dspi/dspi_test.c.obj
 .text.prvLMX2582SynthWriteReg
                0x0000000000000000       0x70 CMakeFiles/la9310.dir/drivers/dspi/dspi_test.c.obj
 .text.prvLMX2582SynthReadReg
                0x0000000000000000       0x84 CMakeFiles/la9310.dir/drivers/dspi/dspi_test.c.obj
 .text.prvLTC5586DemodWriteReg
                0x0000000000000000       0xb4 CMakeFiles/la9310.dir/drivers/dspi/dspi_test.c.obj
 .text.prvLTC5586DemodReadReg
                0x0000000000000000       0x7c CMakeFiles/la9310.dir/drivers/dspi/dspi_test.c.obj
 .text.LMX2582SynthTest
                0x0000000000000000      0x128 CMakeFiles/la9310.dir/drivers/dspi/dspi_test.c.obj
 .text.LTC5586DemodTest
                0x0000000000000000      0x100 CMakeFiles/la9310.dir/drivers/dspi/dspi_test.c.obj
 .text.prvADRF6520WriteReg
                0x0000000000000000       0x70 CMakeFiles/la9310.dir/drivers/dspi/dspi_test.c.obj
 .text.ADRF6520Test
                0x0000000000000000       0x48 CMakeFiles/la9310.dir/drivers/dspi/dspi_test.c.obj
 .text.vDspiTest
                0x0000000000000000      0x140 CMakeFiles/la9310.dir/drivers/dspi/dspi_test.c.obj
 .rodata.ADRF6520Test.str1.1
                0x0000000000000000       0x24 CMakeFiles/la9310.dir/drivers/dspi/dspi_test.c.obj
 .rodata.LMX2582SynthTest.str1.1
                0x0000000000000000      0x14c CMakeFiles/la9310.dir/drivers/dspi/dspi_test.c.obj
 .rodata.LTC5586DemodTest.str1.1
                0x0000000000000000       0xe9 CMakeFiles/la9310.dir/drivers/dspi/dspi_test.c.obj
 .rodata.__func__.6475
                0x0000000000000000       0x18 CMakeFiles/la9310.dir/drivers/dspi/dspi_test.c.obj
 .rodata.__func__.6487
                0x0000000000000000       0x17 CMakeFiles/la9310.dir/drivers/dspi/dspi_test.c.obj
 .rodata.__func__.6500
                0x0000000000000000       0x18 CMakeFiles/la9310.dir/drivers/dspi/dspi_test.c.obj
 .rodata.__func__.6517
                0x0000000000000000       0x17 CMakeFiles/la9310.dir/drivers/dspi/dspi_test.c.obj
 .rodata.__func__.6528
                0x0000000000000000       0x11 CMakeFiles/la9310.dir/drivers/dspi/dspi_test.c.obj
 .rodata.__func__.6557
                0x0000000000000000       0x11 CMakeFiles/la9310.dir/drivers/dspi/dspi_test.c.obj
 .rodata.__func__.6581
                0x0000000000000000       0x14 CMakeFiles/la9310.dir/drivers/dspi/dspi_test.c.obj
 .rodata.__func__.6591
                0x0000000000000000        0xd CMakeFiles/la9310.dir/drivers/dspi/dspi_test.c.obj
 .rodata.__func__.6603
                0x0000000000000000        0xa CMakeFiles/la9310.dir/drivers/dspi/dspi_test.c.obj
 .rodata.prvLMX2582SynthReadReg.str1.1
                0x0000000000000000       0x21 CMakeFiles/la9310.dir/drivers/dspi/dspi_test.c.obj
 .rodata.prvLMX2582SynthWriteReg.str1.1
                0x0000000000000000       0x3a CMakeFiles/la9310.dir/drivers/dspi/dspi_test.c.obj
 .rodata.vDspiTest.str1.1
                0x0000000000000000       0x6b CMakeFiles/la9310.dir/drivers/dspi/dspi_test.c.obj
 .debug_info    0x0000000000000000     0x26f9 CMakeFiles/la9310.dir/drivers/dspi/dspi_test.c.obj
 .debug_abbrev  0x0000000000000000      0x3c6 CMakeFiles/la9310.dir/drivers/dspi/dspi_test.c.obj
 .debug_loc     0x0000000000000000      0xfba CMakeFiles/la9310.dir/drivers/dspi/dspi_test.c.obj
 .debug_aranges
                0x0000000000000000       0x60 CMakeFiles/la9310.dir/drivers/dspi/dspi_test.c.obj
 .debug_ranges  0x0000000000000000      0x280 CMakeFiles/la9310.dir/drivers/dspi/dspi_test.c.obj
 .debug_line    0x0000000000000000      0x7ef CMakeFiles/la9310.dir/drivers/dspi/dspi_test.c.obj
 .debug_str     0x0000000000000000     0x11bb CMakeFiles/la9310.dir/drivers/dspi/dspi_test.c.obj
 .comment       0x0000000000000000       0x80 CMakeFiles/la9310.dir/drivers/dspi/dspi_test.c.obj
 .debug_frame   0x0000000000000000      0x164 CMakeFiles/la9310.dir/drivers/dspi/dspi_test.c.obj
 .ARM.attributes
                0x0000000000000000       0x33 CMakeFiles/la9310.dir/drivers/dspi/dspi_test.c.obj
 .text          0x0000000000000000        0x0 CMakeFiles/la9310.dir/drivers/phy_timer/phytimer.c.obj
 .data          0x0000000000000000        0x0 CMakeFiles/la9310.dir/drivers/phy_timer/phytimer.c.obj
 .bss           0x0000000000000000        0x0 CMakeFiles/la9310.dir/drivers/phy_timer/phytimer.c.obj
 .text.vPhyTimerDisable
                0x0000000000000000       0x10 CMakeFiles/la9310.dir/drivers/phy_timer/phytimer.c.obj
 .text.ulPhyTimerCaptureReset
                0x0000000000000000       0x18 CMakeFiles/la9310.dir/drivers/phy_timer/phytimer.c.obj
 .text.vPhyTimerComparatorConfig
                0x0000000000000000       0x1c CMakeFiles/la9310.dir/drivers/phy_timer/phytimer.c.obj
 .text.ulPhyTimerComparatorRead
                0x0000000000000000       0x10 CMakeFiles/la9310.dir/drivers/phy_timer/phytimer.c.obj
 .text.ulPhyTimerComparatorGetStatus
                0x0000000000000000       0x20 CMakeFiles/la9310.dir/drivers/phy_timer/phytimer.c.obj
 .text.vPhyTimerUpdateComparator
                0x0000000000000000       0x18 CMakeFiles/la9310.dir/drivers/phy_timer/phytimer.c.obj
 .text.vPhyTimerPPSOUTConfig
                0x0000000000000000       0x3c CMakeFiles/la9310.dir/drivers/phy_timer/phytimer.c.obj
 .text.vPhyTimerPPSOUTHandler
                0x0000000000000000       0x34 CMakeFiles/la9310.dir/drivers/phy_timer/phytimer.c.obj
 .text.vPhyTimerPPSINEnable
                0x0000000000000000       0x14 CMakeFiles/la9310.dir/drivers/phy_timer/phytimer.c.obj
 .text.vPhyTimerPPSINDisable
                0x0000000000000000       0x10 CMakeFiles/la9310.dir/drivers/phy_timer/phytimer.c.obj
 .text.ulPhyTimerDiffToUS
                0x0000000000000000       0x18 CMakeFiles/la9310.dir/drivers/phy_timer/phytimer.c.obj
 .text          0x0000000000000000        0x0 CMakeFiles/la9310.dir/drivers/timesync/sync_timing_device.c.obj
 .data          0x0000000000000000        0x0 CMakeFiles/la9310.dir/drivers/timesync/sync_timing_device.c.obj
 .bss           0x0000000000000000        0x0 CMakeFiles/la9310.dir/drivers/timesync/sync_timing_device.c.obj
 .text.xSyncTimingDeviceMemWriteDirect
                0x0000000000000000       0x26 CMakeFiles/la9310.dir/drivers/timesync/sync_timing_device.c.obj
 .text.xSyncTimingDeviceFWAPIBoot
                0x0000000000000000       0x44 CMakeFiles/la9310.dir/drivers/timesync/sync_timing_device.c.obj
 .text.xSyncTimingDeviceReset
                0x0000000000000000       0xb4 CMakeFiles/la9310.dir/drivers/timesync/sync_timing_device.c.obj
 .data.SyncTimingDeviceModeNames
                0x0000000000000000        0xc CMakeFiles/la9310.dir/drivers/timesync/sync_timing_device.c.obj
 .rodata.__func__.8590
                0x0000000000000000       0x1b CMakeFiles/la9310.dir/drivers/timesync/sync_timing_device.c.obj
 .rodata.__func__.8708
                0x0000000000000000       0x17 CMakeFiles/la9310.dir/drivers/timesync/sync_timing_device.c.obj
 .rodata.str1.1
                0x0000000000000000       0x1f CMakeFiles/la9310.dir/drivers/timesync/sync_timing_device.c.obj
 .rodata.xSyncTimingDeviceFWAPIBoot.str1.1
                0x0000000000000000       0x17 CMakeFiles/la9310.dir/drivers/timesync/sync_timing_device.c.obj
 .text          0x0000000000000000        0x0 CMakeFiles/la9310.dir/sw_cmd_engine/sw_cmd_engine.c.obj
 .data          0x0000000000000000        0x0 CMakeFiles/la9310.dir/sw_cmd_engine/sw_cmd_engine.c.obj
 .bss           0x0000000000000000        0x0 CMakeFiles/la9310.dir/sw_cmd_engine/sw_cmd_engine.c.obj
 .text          0x0000000000000000        0x0 CMakeFiles/la9310.dir/utils/delay.c.obj
 .data          0x0000000000000000        0x0 CMakeFiles/la9310.dir/utils/delay.c.obj
 .bss           0x0000000000000000        0x0 CMakeFiles/la9310.dir/utils/delay.c.obj
 .text          0x0000000000000000        0x0 CMakeFiles/la9310.dir/drivers/dcs/la9310_dcs.c.obj
 .data          0x0000000000000000        0x0 CMakeFiles/la9310.dir/drivers/dcs/la9310_dcs.c.obj
 .bss           0x0000000000000000        0x0 CMakeFiles/la9310.dir/drivers/dcs/la9310_dcs.c.obj
 .text.xLa9310AdcDacPowerDown
                0x0000000000000000       0x44 CMakeFiles/la9310.dir/drivers/dcs/la9310_dcs.c.obj
 .text.vLa9310DacClockSwitch
                0x0000000000000000       0x7c CMakeFiles/la9310.dir/drivers/dcs/la9310_dcs.c.obj
 .rodata.__func__.6486
                0x0000000000000000       0x16 CMakeFiles/la9310.dir/drivers/dcs/la9310_dcs.c.obj
 .rodata.vLa9310DacClockSwitch.str1.1
                0x0000000000000000       0x55 CMakeFiles/la9310.dir/drivers/dcs/la9310_dcs.c.obj
 .text          0x0000000000000000        0x0 CMakeFiles/la9310.dir/utils/FreeRTOS-Plus-CLI-Source/FreeRTOS_CLI.c.obj
 .data          0x0000000000000000        0x0 CMakeFiles/la9310.dir/utils/FreeRTOS-Plus-CLI-Source/FreeRTOS_CLI.c.obj
 .bss           0x0000000000000000        0x0 CMakeFiles/la9310.dir/utils/FreeRTOS-Plus-CLI-Source/FreeRTOS_CLI.c.obj
 .text          0x0000000000000000        0x0 CMakeFiles/la9310.dir/utils/command_from_shell.c.obj
 .data          0x0000000000000000        0x0 CMakeFiles/la9310.dir/utils/command_from_shell.c.obj
 .bss           0x0000000000000000        0x0 CMakeFiles/la9310.dir/utils/command_from_shell.c.obj
 .text          0x0000000000000000        0x0 CMakeFiles/la9310.dir/utils/la9310_nlm_test_command.c.obj
 .data          0x0000000000000000        0x0 CMakeFiles/la9310.dir/utils/la9310_nlm_test_command.c.obj
 .bss           0x0000000000000000        0x0 CMakeFiles/la9310.dir/utils/la9310_nlm_test_command.c.obj
 .text.prvNLMTest
                0x0000000000000000      0x56c CMakeFiles/la9310.dir/utils/la9310_nlm_test_command.c.obj
 .text.vRegisterNLMTestCommands
                0x0000000000000000        0xc CMakeFiles/la9310.dir/utils/la9310_nlm_test_command.c.obj
 .data.ulEdmaDemoInfo
                0x0000000000000000        0x4 CMakeFiles/la9310.dir/utils/la9310_nlm_test_command.c.obj
 .rodata.__func__.6782
                0x0000000000000000        0xb CMakeFiles/la9310.dir/utils/la9310_nlm_test_command.c.obj
 .rodata.cCmdDescriptinArr
                0x0000000000000000      0x7d0 CMakeFiles/la9310.dir/utils/la9310_nlm_test_command.c.obj
 .rodata.cCmdDescriptinArrI2C
                0x0000000000000000      0x7d0 CMakeFiles/la9310.dir/utils/la9310_nlm_test_command.c.obj
 .rodata.prvNLMTest.str1.1
                0x0000000000000000      0x196 CMakeFiles/la9310.dir/utils/la9310_nlm_test_command.c.obj
 .rodata.str1.1
                0x0000000000000000       0x29 CMakeFiles/la9310.dir/utils/la9310_nlm_test_command.c.obj
 .rodata.xNLMTestCommand
                0x0000000000000000       0x10 CMakeFiles/la9310.dir/utils/la9310_nlm_test_command.c.obj
 .debug_info    0x0000000000000000     0x2459 CMakeFiles/la9310.dir/utils/la9310_nlm_test_command.c.obj
 .debug_abbrev  0x0000000000000000      0x333 CMakeFiles/la9310.dir/utils/la9310_nlm_test_command.c.obj
 .debug_loc     0x0000000000000000      0xdee CMakeFiles/la9310.dir/utils/la9310_nlm_test_command.c.obj
 .debug_aranges
                0x0000000000000000       0x28 CMakeFiles/la9310.dir/utils/la9310_nlm_test_command.c.obj
 .debug_ranges  0x0000000000000000       0xa0 CMakeFiles/la9310.dir/utils/la9310_nlm_test_command.c.obj
 .debug_line    0x0000000000000000      0x849 CMakeFiles/la9310.dir/utils/la9310_nlm_test_command.c.obj
 .debug_str     0x0000000000000000     0x175e CMakeFiles/la9310.dir/utils/la9310_nlm_test_command.c.obj
 .comment       0x0000000000000000       0x80 CMakeFiles/la9310.dir/utils/la9310_nlm_test_command.c.obj
 .debug_frame   0x0000000000000000       0x50 CMakeFiles/la9310.dir/utils/la9310_nlm_test_command.c.obj
 .ARM.attributes
                0x0000000000000000       0x33 CMakeFiles/la9310.dir/utils/la9310_nlm_test_command.c.obj
 .text          0x0000000000000000        0x0 CMakeFiles/la9310.dir/utils/UARTCommandConsole.c.obj
 .data          0x0000000000000000        0x0 CMakeFiles/la9310.dir/utils/UARTCommandConsole.c.obj
 .bss           0x0000000000000000        0x0 CMakeFiles/la9310.dir/utils/UARTCommandConsole.c.obj
 .text          0x0000000000000000        0x0 CMakeFiles/la9310.dir/drivers/timesync/sync_timing_device_cli.c.obj
 .data          0x0000000000000000        0x0 CMakeFiles/la9310.dir/drivers/timesync/sync_timing_device_cli.c.obj
 .bss           0x0000000000000000        0x0 CMakeFiles/la9310.dir/drivers/timesync/sync_timing_device_cli.c.obj
 .text.unlikely.prvTimesyncCLIShowHelp
                0x0000000000000000       0x28 CMakeFiles/la9310.dir/drivers/timesync/sync_timing_device_cli.c.obj
 .text.prvTimesyncCLI
                0x0000000000000000      0x22c CMakeFiles/la9310.dir/drivers/timesync/sync_timing_device_cli.c.obj
 .text.vRegisterTimesyncCLICommands
                0x0000000000000000        0xc CMakeFiles/la9310.dir/drivers/timesync/sync_timing_device_cli.c.obj
 .rodata.prvTimesyncCLI.str1.1
                0x0000000000000000       0x45 CMakeFiles/la9310.dir/drivers/timesync/sync_timing_device_cli.c.obj
 .rodata.prvTimesyncCLIShowHelp.str1.1
                0x0000000000000000       0xfc CMakeFiles/la9310.dir/drivers/timesync/sync_timing_device_cli.c.obj
 .rodata.str1.1
                0x0000000000000000        0x5 CMakeFiles/la9310.dir/drivers/timesync/sync_timing_device_cli.c.obj
 .rodata.xTimesyncCLICommand
                0x0000000000000000       0x10 CMakeFiles/la9310.dir/drivers/timesync/sync_timing_device_cli.c.obj
 .debug_info    0x0000000000000000     0x1b30 CMakeFiles/la9310.dir/drivers/timesync/sync_timing_device_cli.c.obj
 .debug_abbrev  0x0000000000000000      0x31d CMakeFiles/la9310.dir/drivers/timesync/sync_timing_device_cli.c.obj
 .debug_loc     0x0000000000000000      0x665 CMakeFiles/la9310.dir/drivers/timesync/sync_timing_device_cli.c.obj
 .debug_aranges
                0x0000000000000000       0x30 CMakeFiles/la9310.dir/drivers/timesync/sync_timing_device_cli.c.obj
 .debug_ranges  0x0000000000000000       0x50 CMakeFiles/la9310.dir/drivers/timesync/sync_timing_device_cli.c.obj
 .debug_line    0x0000000000000000      0x772 CMakeFiles/la9310.dir/drivers/timesync/sync_timing_device_cli.c.obj
 .debug_str     0x0000000000000000     0x162f CMakeFiles/la9310.dir/drivers/timesync/sync_timing_device_cli.c.obj
 .comment       0x0000000000000000       0x80 CMakeFiles/la9310.dir/drivers/timesync/sync_timing_device_cli.c.obj
 .debug_frame   0x0000000000000000       0x64 CMakeFiles/la9310.dir/drivers/timesync/sync_timing_device_cli.c.obj
 .ARM.attributes
                0x0000000000000000       0x33 CMakeFiles/la9310.dir/drivers/timesync/sync_timing_device_cli.c.obj
 .text          0x0000000000000000        0x0 CMakeFiles/la9310.dir/drivers/rfic/rfic_init.c.obj
 .data          0x0000000000000000        0x0 CMakeFiles/la9310.dir/drivers/rfic/rfic_init.c.obj
 .bss           0x0000000000000000        0x0 CMakeFiles/la9310.dir/drivers/rfic/rfic_init.c.obj
 .text          0x0000000000000000        0x0 CMakeFiles/la9310.dir/drivers/rfic/rfic_core.c.obj
 .data          0x0000000000000000        0x0 CMakeFiles/la9310.dir/drivers/rfic/rfic_core.c.obj
 .bss           0x0000000000000000        0x0 CMakeFiles/la9310.dir/drivers/rfic/rfic_core.c.obj
 .text          0x0000000000000000        0x0 CMakeFiles/la9310.dir/drivers/rfic/rfic_avi_ctrl.c.obj
 .data          0x0000000000000000        0x0 CMakeFiles/la9310.dir/drivers/rfic/rfic_avi_ctrl.c.obj
 .bss           0x0000000000000000        0x0 CMakeFiles/la9310.dir/drivers/rfic/rfic_avi_ctrl.c.obj
 .text          0x0000000000000000        0x0 CMakeFiles/la9310.dir/drivers/rfic/rfic_api.c.obj
 .data          0x0000000000000000        0x0 CMakeFiles/la9310.dir/drivers/rfic/rfic_api.c.obj
 .bss           0x0000000000000000        0x0 CMakeFiles/la9310.dir/drivers/rfic/rfic_api.c.obj
 .text.xRficLnaCtrl
                0x0000000000000000       0x3a CMakeFiles/la9310.dir/drivers/rfic/rfic_api.c.obj
 .text.xRficDemodGainCtrl
                0x0000000000000000       0x4a CMakeFiles/la9310.dir/drivers/rfic/rfic_api.c.obj
 .text.xRficAdrfGainCtrl
                0x0000000000000000       0x54 CMakeFiles/la9310.dir/drivers/rfic/rfic_api.c.obj
 .text          0x0000000000000000        0x0 CMakeFiles/la9310.dir/drivers/rfic/rfic_vga.c.obj
 .data          0x0000000000000000        0x0 CMakeFiles/la9310.dir/drivers/rfic/rfic_vga.c.obj
 .bss           0x0000000000000000        0x0 CMakeFiles/la9310.dir/drivers/rfic/rfic_vga.c.obj
 .data.RficVgaGainTable
                0x0000000000000000       0xf4 CMakeFiles/la9310.dir/drivers/rfic/rfic_vga.c.obj
 .text          0x0000000000000000        0x0 CMakeFiles/la9310.dir/drivers/rfic/rfic_synth.c.obj
 .data          0x0000000000000000        0x0 CMakeFiles/la9310.dir/drivers/rfic/rfic_synth.c.obj
 .bss           0x0000000000000000        0x0 CMakeFiles/la9310.dir/drivers/rfic/rfic_synth.c.obj
 .text          0x0000000000000000        0x0 CMakeFiles/la9310.dir/drivers/rfic/rfic_demod.c.obj
 .data          0x0000000000000000        0x0 CMakeFiles/la9310.dir/drivers/rfic/rfic_demod.c.obj
 .bss           0x0000000000000000        0x0 CMakeFiles/la9310.dir/drivers/rfic/rfic_demod.c.obj
 .text          0x0000000000000000        0x0 CMakeFiles/la9310.dir/drivers/rfic/rfic_cmd.c.obj
 .data          0x0000000000000000        0x0 CMakeFiles/la9310.dir/drivers/rfic/rfic_cmd.c.obj
 .bss           0x0000000000000000        0x0 CMakeFiles/la9310.dir/drivers/rfic/rfic_cmd.c.obj
 .text          0x0000000000000000        0x0 CMakeFiles/la9310.dir/drivers/rfic/rfic_dac.c.obj
 .data          0x0000000000000000        0x0 CMakeFiles/la9310.dir/drivers/rfic/rfic_dac.c.obj
 .bss           0x0000000000000000        0x0 CMakeFiles/la9310.dir/drivers/rfic/rfic_dac.c.obj
 .text          0x0000000000000000        0x0 /home/deepika/Tools_controller/gcc-arm-none-eabi-6-2017-q2-update/bin/../lib/gcc/arm-none-eabi/6.3.1/../../../../arm-none-eabi/lib/thumb/v7e-m/libm.a(lib_a-sf_round.o)
 .data          0x0000000000000000        0x0 /home/deepika/Tools_controller/gcc-arm-none-eabi-6-2017-q2-update/bin/../lib/gcc/arm-none-eabi/6.3.1/../../../../arm-none-eabi/lib/thumb/v7e-m/libm.a(lib_a-sf_round.o)
 .bss           0x0000000000000000        0x0 /home/deepika/Tools_controller/gcc-arm-none-eabi-6-2017-q2-update/bin/../lib/gcc/arm-none-eabi/6.3.1/../../../../arm-none-eabi/lib/thumb/v7e-m/libm.a(lib_a-sf_round.o)
 .text          0x0000000000000000        0x0 /home/deepika/Tools_controller/gcc-arm-none-eabi-6-2017-q2-update/bin/../lib/gcc/arm-none-eabi/6.3.1/../../../../arm-none-eabi/lib/thumb/v7e-m/libm.a(lib_a-w_atan2.o)
 .data          0x0000000000000000        0x0 /home/deepika/Tools_controller/gcc-arm-none-eabi-6-2017-q2-update/bin/../lib/gcc/arm-none-eabi/6.3.1/../../../../arm-none-eabi/lib/thumb/v7e-m/libm.a(lib_a-w_atan2.o)
 .bss           0x0000000000000000        0x0 /home/deepika/Tools_controller/gcc-arm-none-eabi-6-2017-q2-update/bin/../lib/gcc/arm-none-eabi/6.3.1/../../../../arm-none-eabi/lib/thumb/v7e-m/libm.a(lib_a-w_atan2.o)
 .text          0x0000000000000000        0x0 /home/deepika/Tools_controller/gcc-arm-none-eabi-6-2017-q2-update/bin/../lib/gcc/arm-none-eabi/6.3.1/../../../../arm-none-eabi/lib/thumb/v7e-m/libm.a(lib_a-e_atan2.o)
 .data          0x0000000000000000        0x0 /home/deepika/Tools_controller/gcc-arm-none-eabi-6-2017-q2-update/bin/../lib/gcc/arm-none-eabi/6.3.1/../../../../arm-none-eabi/lib/thumb/v7e-m/libm.a(lib_a-e_atan2.o)
 .bss           0x0000000000000000        0x0 /home/deepika/Tools_controller/gcc-arm-none-eabi-6-2017-q2-update/bin/../lib/gcc/arm-none-eabi/6.3.1/../../../../arm-none-eabi/lib/thumb/v7e-m/libm.a(lib_a-e_atan2.o)
 .text          0x0000000000000000        0x0 /home/deepika/Tools_controller/gcc-arm-none-eabi-6-2017-q2-update/bin/../lib/gcc/arm-none-eabi/6.3.1/../../../../arm-none-eabi/lib/thumb/v7e-m/libm.a(lib_a-s_atan.o)
 .data          0x0000000000000000        0x0 /home/deepika/Tools_controller/gcc-arm-none-eabi-6-2017-q2-update/bin/../lib/gcc/arm-none-eabi/6.3.1/../../../../arm-none-eabi/lib/thumb/v7e-m/libm.a(lib_a-s_atan.o)
 .bss           0x0000000000000000        0x0 /home/deepika/Tools_controller/gcc-arm-none-eabi-6-2017-q2-update/bin/../lib/gcc/arm-none-eabi/6.3.1/../../../../arm-none-eabi/lib/thumb/v7e-m/libm.a(lib_a-s_atan.o)
 .text          0x0000000000000000        0x0 /home/deepika/Tools_controller/gcc-arm-none-eabi-6-2017-q2-update/bin/../lib/gcc/arm-none-eabi/6.3.1/../../../../arm-none-eabi/lib/thumb/v7e-m/libm.a(lib_a-s_fabs.o)
 .data          0x0000000000000000        0x0 /home/deepika/Tools_controller/gcc-arm-none-eabi-6-2017-q2-update/bin/../lib/gcc/arm-none-eabi/6.3.1/../../../../arm-none-eabi/lib/thumb/v7e-m/libm.a(lib_a-s_fabs.o)
 .bss           0x0000000000000000        0x0 /home/deepika/Tools_controller/gcc-arm-none-eabi-6-2017-q2-update/bin/../lib/gcc/arm-none-eabi/6.3.1/../../../../arm-none-eabi/lib/thumb/v7e-m/libm.a(lib_a-s_fabs.o)
 .text          0x0000000000000000        0x0 /home/deepika/Tools_controller/gcc-arm-none-eabi-6-2017-q2-update/bin/../lib/gcc/arm-none-eabi/6.3.1/../../../../arm-none-eabi/lib/thumb/v7e-m/libc_nano.a(lib_a-errno.o)
 .data          0x0000000000000000        0x0 /home/deepika/Tools_controller/gcc-arm-none-eabi-6-2017-q2-update/bin/../lib/gcc/arm-none-eabi/6.3.1/../../../../arm-none-eabi/lib/thumb/v7e-m/libc_nano.a(lib_a-errno.o)
 .bss           0x0000000000000000        0x0 /home/deepika/Tools_controller/gcc-arm-none-eabi-6-2017-q2-update/bin/../lib/gcc/arm-none-eabi/6.3.1/../../../../arm-none-eabi/lib/thumb/v7e-m/libc_nano.a(lib_a-errno.o)
 .text          0x0000000000000000        0x0 /home/deepika/Tools_controller/gcc-arm-none-eabi-6-2017-q2-update/bin/../lib/gcc/arm-none-eabi/6.3.1/../../../../arm-none-eabi/lib/thumb/v7e-m/libc_nano.a(lib_a-exit.o)
 .data          0x0000000000000000        0x0 /home/deepika/Tools_controller/gcc-arm-none-eabi-6-2017-q2-update/bin/../lib/gcc/arm-none-eabi/6.3.1/../../../../arm-none-eabi/lib/thumb/v7e-m/libc_nano.a(lib_a-exit.o)
 .bss           0x0000000000000000        0x0 /home/deepika/Tools_controller/gcc-arm-none-eabi-6-2017-q2-update/bin/../lib/gcc/arm-none-eabi/6.3.1/../../../../arm-none-eabi/lib/thumb/v7e-m/libc_nano.a(lib_a-exit.o)
 .text          0x0000000000000000        0x0 /home/deepika/Tools_controller/gcc-arm-none-eabi-6-2017-q2-update/bin/../lib/gcc/arm-none-eabi/6.3.1/../../../../arm-none-eabi/lib/thumb/v7e-m/libc_nano.a(lib_a-impure.o)
 .data          0x0000000000000000        0x0 /home/deepika/Tools_controller/gcc-arm-none-eabi-6-2017-q2-update/bin/../lib/gcc/arm-none-eabi/6.3.1/../../../../arm-none-eabi/lib/thumb/v7e-m/libc_nano.a(lib_a-impure.o)
 .bss           0x0000000000000000        0x0 /home/deepika/Tools_controller/gcc-arm-none-eabi-6-2017-q2-update/bin/../lib/gcc/arm-none-eabi/6.3.1/../../../../arm-none-eabi/lib/thumb/v7e-m/libc_nano.a(lib_a-impure.o)
 .text          0x0000000000000000        0x0 /home/deepika/Tools_controller/gcc-arm-none-eabi-6-2017-q2-update/bin/../lib/gcc/arm-none-eabi/6.3.1/../../../../arm-none-eabi/lib/thumb/v7e-m/libc_nano.a(lib_a-init.o)
 .data          0x0000000000000000        0x0 /home/deepika/Tools_controller/gcc-arm-none-eabi-6-2017-q2-update/bin/../lib/gcc/arm-none-eabi/6.3.1/../../../../arm-none-eabi/lib/thumb/v7e-m/libc_nano.a(lib_a-init.o)
 .bss           0x0000000000000000        0x0 /home/deepika/Tools_controller/gcc-arm-none-eabi-6-2017-q2-update/bin/../lib/gcc/arm-none-eabi/6.3.1/../../../../arm-none-eabi/lib/thumb/v7e-m/libc_nano.a(lib_a-init.o)
 .text          0x0000000000000000        0x0 /home/deepika/Tools_controller/gcc-arm-none-eabi-6-2017-q2-update/bin/../lib/gcc/arm-none-eabi/6.3.1/../../../../arm-none-eabi/lib/thumb/v7e-m/libc_nano.a(lib_a-memcmp.o)
 .data          0x0000000000000000        0x0 /home/deepika/Tools_controller/gcc-arm-none-eabi-6-2017-q2-update/bin/../lib/gcc/arm-none-eabi/6.3.1/../../../../arm-none-eabi/lib/thumb/v7e-m/libc_nano.a(lib_a-memcmp.o)
 .bss           0x0000000000000000        0x0 /home/deepika/Tools_controller/gcc-arm-none-eabi-6-2017-q2-update/bin/../lib/gcc/arm-none-eabi/6.3.1/../../../../arm-none-eabi/lib/thumb/v7e-m/libc_nano.a(lib_a-memcmp.o)
 .text          0x0000000000000000        0x0 /home/deepika/Tools_controller/gcc-arm-none-eabi-6-2017-q2-update/bin/../lib/gcc/arm-none-eabi/6.3.1/../../../../arm-none-eabi/lib/thumb/v7e-m/libc_nano.a(lib_a-memcpy-stub.o)
 .data          0x0000000000000000        0x0 /home/deepika/Tools_controller/gcc-arm-none-eabi-6-2017-q2-update/bin/../lib/gcc/arm-none-eabi/6.3.1/../../../../arm-none-eabi/lib/thumb/v7e-m/libc_nano.a(lib_a-memcpy-stub.o)
 .bss           0x0000000000000000        0x0 /home/deepika/Tools_controller/gcc-arm-none-eabi-6-2017-q2-update/bin/../lib/gcc/arm-none-eabi/6.3.1/../../../../arm-none-eabi/lib/thumb/v7e-m/libc_nano.a(lib_a-memcpy-stub.o)
 .text          0x0000000000000000        0x0 /home/deepika/Tools_controller/gcc-arm-none-eabi-6-2017-q2-update/bin/../lib/gcc/arm-none-eabi/6.3.1/../../../../arm-none-eabi/lib/thumb/v7e-m/libc_nano.a(lib_a-memset.o)
 .data          0x0000000000000000        0x0 /home/deepika/Tools_controller/gcc-arm-none-eabi-6-2017-q2-update/bin/../lib/gcc/arm-none-eabi/6.3.1/../../../../arm-none-eabi/lib/thumb/v7e-m/libc_nano.a(lib_a-memset.o)
 .bss           0x0000000000000000        0x0 /home/deepika/Tools_controller/gcc-arm-none-eabi-6-2017-q2-update/bin/../lib/gcc/arm-none-eabi/6.3.1/../../../../arm-none-eabi/lib/thumb/v7e-m/libc_nano.a(lib_a-memset.o)
 .text          0x0000000000000000        0x0 /home/deepika/Tools_controller/gcc-arm-none-eabi-6-2017-q2-update/bin/../lib/gcc/arm-none-eabi/6.3.1/../../../../arm-none-eabi/lib/thumb/v7e-m/libc_nano.a(lib_a-sprintf.o)
 .data          0x0000000000000000        0x0 /home/deepika/Tools_controller/gcc-arm-none-eabi-6-2017-q2-update/bin/../lib/gcc/arm-none-eabi/6.3.1/../../../../arm-none-eabi/lib/thumb/v7e-m/libc_nano.a(lib_a-sprintf.o)
 .bss           0x0000000000000000        0x0 /home/deepika/Tools_controller/gcc-arm-none-eabi-6-2017-q2-update/bin/../lib/gcc/arm-none-eabi/6.3.1/../../../../arm-none-eabi/lib/thumb/v7e-m/libc_nano.a(lib_a-sprintf.o)
 .text._sprintf_r
                0x0000000000000000       0x40 /home/deepika/Tools_controller/gcc-arm-none-eabi-6-2017-q2-update/bin/../lib/gcc/arm-none-eabi/6.3.1/../../../../arm-none-eabi/lib/thumb/v7e-m/libc_nano.a(lib_a-sprintf.o)
 .text          0x0000000000000000       0x14 /home/deepika/Tools_controller/gcc-arm-none-eabi-6-2017-q2-update/bin/../lib/gcc/arm-none-eabi/6.3.1/../../../../arm-none-eabi/lib/thumb/v7e-m/libc_nano.a(lib_a-strcmp.o)
 .data          0x0000000000000000        0x0 /home/deepika/Tools_controller/gcc-arm-none-eabi-6-2017-q2-update/bin/../lib/gcc/arm-none-eabi/6.3.1/../../../../arm-none-eabi/lib/thumb/v7e-m/libc_nano.a(lib_a-strcmp.o)
 .bss           0x0000000000000000        0x0 /home/deepika/Tools_controller/gcc-arm-none-eabi-6-2017-q2-update/bin/../lib/gcc/arm-none-eabi/6.3.1/../../../../arm-none-eabi/lib/thumb/v7e-m/libc_nano.a(lib_a-strcmp.o)
 .debug_frame   0x0000000000000000       0x20 /home/deepika/Tools_controller/gcc-arm-none-eabi-6-2017-q2-update/bin/../lib/gcc/arm-none-eabi/6.3.1/../../../../arm-none-eabi/lib/thumb/v7e-m/libc_nano.a(lib_a-strcmp.o)
 .ARM.attributes
                0x0000000000000000       0x1c /home/deepika/Tools_controller/gcc-arm-none-eabi-6-2017-q2-update/bin/../lib/gcc/arm-none-eabi/6.3.1/../../../../arm-none-eabi/lib/thumb/v7e-m/libc_nano.a(lib_a-strcmp.o)
 .text          0x0000000000000000        0x0 /home/deepika/Tools_controller/gcc-arm-none-eabi-6-2017-q2-update/bin/../lib/gcc/arm-none-eabi/6.3.1/../../../../arm-none-eabi/lib/thumb/v7e-m/libc_nano.a(lib_a-strcpy.o)
 .data          0x0000000000000000        0x0 /home/deepika/Tools_controller/gcc-arm-none-eabi-6-2017-q2-update/bin/../lib/gcc/arm-none-eabi/6.3.1/../../../../arm-none-eabi/lib/thumb/v7e-m/libc_nano.a(lib_a-strcpy.o)
 .bss           0x0000000000000000        0x0 /home/deepika/Tools_controller/gcc-arm-none-eabi-6-2017-q2-update/bin/../lib/gcc/arm-none-eabi/6.3.1/../../../../arm-none-eabi/lib/thumb/v7e-m/libc_nano.a(lib_a-strcpy.o)
 .data          0x0000000000000000        0x0 /home/deepika/Tools_controller/gcc-arm-none-eabi-6-2017-q2-update/bin/../lib/gcc/arm-none-eabi/6.3.1/../../../../arm-none-eabi/lib/thumb/v7e-m/libc_nano.a(lib_a-strlen.o)
 .bss           0x0000000000000000        0x0 /home/deepika/Tools_controller/gcc-arm-none-eabi-6-2017-q2-update/bin/../lib/gcc/arm-none-eabi/6.3.1/../../../../arm-none-eabi/lib/thumb/v7e-m/libc_nano.a(lib_a-strlen.o)
 .text          0x0000000000000000        0x0 /home/deepika/Tools_controller/gcc-arm-none-eabi-6-2017-q2-update/bin/../lib/gcc/arm-none-eabi/6.3.1/../../../../arm-none-eabi/lib/thumb/v7e-m/libc_nano.a(lib_a-strncat.o)
 .data          0x0000000000000000        0x0 /home/deepika/Tools_controller/gcc-arm-none-eabi-6-2017-q2-update/bin/../lib/gcc/arm-none-eabi/6.3.1/../../../../arm-none-eabi/lib/thumb/v7e-m/libc_nano.a(lib_a-strncat.o)
 .bss           0x0000000000000000        0x0 /home/deepika/Tools_controller/gcc-arm-none-eabi-6-2017-q2-update/bin/../lib/gcc/arm-none-eabi/6.3.1/../../../../arm-none-eabi/lib/thumb/v7e-m/libc_nano.a(lib_a-strncat.o)
 .text          0x0000000000000000        0x0 /home/deepika/Tools_controller/gcc-arm-none-eabi-6-2017-q2-update/bin/../lib/gcc/arm-none-eabi/6.3.1/../../../../arm-none-eabi/lib/thumb/v7e-m/libc_nano.a(lib_a-strncmp.o)
 .data          0x0000000000000000        0x0 /home/deepika/Tools_controller/gcc-arm-none-eabi-6-2017-q2-update/bin/../lib/gcc/arm-none-eabi/6.3.1/../../../../arm-none-eabi/lib/thumb/v7e-m/libc_nano.a(lib_a-strncmp.o)
 .bss           0x0000000000000000        0x0 /home/deepika/Tools_controller/gcc-arm-none-eabi-6-2017-q2-update/bin/../lib/gcc/arm-none-eabi/6.3.1/../../../../arm-none-eabi/lib/thumb/v7e-m/libc_nano.a(lib_a-strncmp.o)
 .text          0x0000000000000000        0x0 /home/deepika/Tools_controller/gcc-arm-none-eabi-6-2017-q2-update/bin/../lib/gcc/arm-none-eabi/6.3.1/../../../../arm-none-eabi/lib/thumb/v7e-m/libc_nano.a(lib_a-strncpy.o)
 .data          0x0000000000000000        0x0 /home/deepika/Tools_controller/gcc-arm-none-eabi-6-2017-q2-update/bin/../lib/gcc/arm-none-eabi/6.3.1/../../../../arm-none-eabi/lib/thumb/v7e-m/libc_nano.a(lib_a-strncpy.o)
 .bss           0x0000000000000000        0x0 /home/deepika/Tools_controller/gcc-arm-none-eabi-6-2017-q2-update/bin/../lib/gcc/arm-none-eabi/6.3.1/../../../../arm-none-eabi/lib/thumb/v7e-m/libc_nano.a(lib_a-strncpy.o)
 .text          0x0000000000000000        0x0 /home/deepika/Tools_controller/gcc-arm-none-eabi-6-2017-q2-update/bin/../lib/gcc/arm-none-eabi/6.3.1/../../../../arm-none-eabi/lib/thumb/v7e-m/libc_nano.a(lib_a-strtol.o)
 .data          0x0000000000000000        0x0 /home/deepika/Tools_controller/gcc-arm-none-eabi-6-2017-q2-update/bin/../lib/gcc/arm-none-eabi/6.3.1/../../../../arm-none-eabi/lib/thumb/v7e-m/libc_nano.a(lib_a-strtol.o)
 .bss           0x0000000000000000        0x0 /home/deepika/Tools_controller/gcc-arm-none-eabi-6-2017-q2-update/bin/../lib/gcc/arm-none-eabi/6.3.1/../../../../arm-none-eabi/lib/thumb/v7e-m/libc_nano.a(lib_a-strtol.o)
 .text._strtol_l.isra.0
                0x0000000000000000      0x100 /home/deepika/Tools_controller/gcc-arm-none-eabi-6-2017-q2-update/bin/../lib/gcc/arm-none-eabi/6.3.1/../../../../arm-none-eabi/lib/thumb/v7e-m/libc_nano.a(lib_a-strtol.o)
 .text._strtol_r
                0x0000000000000000       0x24 /home/deepika/Tools_controller/gcc-arm-none-eabi-6-2017-q2-update/bin/../lib/gcc/arm-none-eabi/6.3.1/../../../../arm-none-eabi/lib/thumb/v7e-m/libc_nano.a(lib_a-strtol.o)
 .text.strtol_l
                0x0000000000000000       0x1c /home/deepika/Tools_controller/gcc-arm-none-eabi-6-2017-q2-update/bin/../lib/gcc/arm-none-eabi/6.3.1/../../../../arm-none-eabi/lib/thumb/v7e-m/libc_nano.a(lib_a-strtol.o)
 .text.strtol   0x0000000000000000       0x2c /home/deepika/Tools_controller/gcc-arm-none-eabi-6-2017-q2-update/bin/../lib/gcc/arm-none-eabi/6.3.1/../../../../arm-none-eabi/lib/thumb/v7e-m/libc_nano.a(lib_a-strtol.o)
 .debug_frame   0x0000000000000000       0x88 /home/deepika/Tools_controller/gcc-arm-none-eabi-6-2017-q2-update/bin/../lib/gcc/arm-none-eabi/6.3.1/../../../../arm-none-eabi/lib/thumb/v7e-m/libc_nano.a(lib_a-strtol.o)
 .ARM.attributes
                0x0000000000000000       0x2e /home/deepika/Tools_controller/gcc-arm-none-eabi-6-2017-q2-update/bin/../lib/gcc/arm-none-eabi/6.3.1/../../../../arm-none-eabi/lib/thumb/v7e-m/libc_nano.a(lib_a-strtol.o)
 .text          0x0000000000000000        0x0 /home/deepika/Tools_controller/gcc-arm-none-eabi-6-2017-q2-update/bin/../lib/gcc/arm-none-eabi/6.3.1/../../../../arm-none-eabi/lib/thumb/v7e-m/libc_nano.a(lib_a-strtoul.o)
 .data          0x0000000000000000        0x0 /home/deepika/Tools_controller/gcc-arm-none-eabi-6-2017-q2-update/bin/../lib/gcc/arm-none-eabi/6.3.1/../../../../arm-none-eabi/lib/thumb/v7e-m/libc_nano.a(lib_a-strtoul.o)
 .bss           0x0000000000000000        0x0 /home/deepika/Tools_controller/gcc-arm-none-eabi-6-2017-q2-update/bin/../lib/gcc/arm-none-eabi/6.3.1/../../../../arm-none-eabi/lib/thumb/v7e-m/libc_nano.a(lib_a-strtoul.o)
 .text._strtoul_r
                0x0000000000000000       0x24 /home/deepika/Tools_controller/gcc-arm-none-eabi-6-2017-q2-update/bin/../lib/gcc/arm-none-eabi/6.3.1/../../../../arm-none-eabi/lib/thumb/v7e-m/libc_nano.a(lib_a-strtoul.o)
 .text.strtoul_l
                0x0000000000000000       0x1c /home/deepika/Tools_controller/gcc-arm-none-eabi-6-2017-q2-update/bin/../lib/gcc/arm-none-eabi/6.3.1/../../../../arm-none-eabi/lib/thumb/v7e-m/libc_nano.a(lib_a-strtoul.o)
 .text          0x0000000000000000        0x0 /home/deepika/Tools_controller/gcc-arm-none-eabi-6-2017-q2-update/bin/../lib/gcc/arm-none-eabi/6.3.1/../../../../arm-none-eabi/lib/thumb/v7e-m/libc_nano.a(lib_a-locale.o)
 .data          0x0000000000000000        0x0 /home/deepika/Tools_controller/gcc-arm-none-eabi-6-2017-q2-update/bin/../lib/gcc/arm-none-eabi/6.3.1/../../../../arm-none-eabi/lib/thumb/v7e-m/libc_nano.a(lib_a-locale.o)
 .bss           0x0000000000000000        0x0 /home/deepika/Tools_controller/gcc-arm-none-eabi-6-2017-q2-update/bin/../lib/gcc/arm-none-eabi/6.3.1/../../../../arm-none-eabi/lib/thumb/v7e-m/libc_nano.a(lib_a-locale.o)
 .text._setlocale_r
                0x0000000000000000       0x38 /home/deepika/Tools_controller/gcc-arm-none-eabi-6-2017-q2-update/bin/../lib/gcc/arm-none-eabi/6.3.1/../../../../arm-none-eabi/lib/thumb/v7e-m/libc_nano.a(lib_a-locale.o)
 .text.__locale_mb_cur_max
                0x0000000000000000       0x1c /home/deepika/Tools_controller/gcc-arm-none-eabi-6-2017-q2-update/bin/../lib/gcc/arm-none-eabi/6.3.1/../../../../arm-none-eabi/lib/thumb/v7e-m/libc_nano.a(lib_a-locale.o)
 .text.__locale_ctype_ptr
                0x0000000000000000       0x1c /home/deepika/Tools_controller/gcc-arm-none-eabi-6-2017-q2-update/bin/../lib/gcc/arm-none-eabi/6.3.1/../../../../arm-none-eabi/lib/thumb/v7e-m/libc_nano.a(lib_a-locale.o)
 .text.setlocale
                0x0000000000000000       0x10 /home/deepika/Tools_controller/gcc-arm-none-eabi-6-2017-q2-update/bin/../lib/gcc/arm-none-eabi/6.3.1/../../../../arm-none-eabi/lib/thumb/v7e-m/libc_nano.a(lib_a-locale.o)
 .bss._PathLocale
                0x0000000000000000        0x4 /home/deepika/Tools_controller/gcc-arm-none-eabi-6-2017-q2-update/bin/../lib/gcc/arm-none-eabi/6.3.1/../../../../arm-none-eabi/lib/thumb/v7e-m/libc_nano.a(lib_a-locale.o)
 .text          0x0000000000000000        0x0 /home/deepika/Tools_controller/gcc-arm-none-eabi-6-2017-q2-update/bin/../lib/gcc/arm-none-eabi/6.3.1/../../../../arm-none-eabi/lib/thumb/v7e-m/libc_nano.a(lib_a-mbtowc_r.o)
 .data          0x0000000000000000        0x0 /home/deepika/Tools_controller/gcc-arm-none-eabi-6-2017-q2-update/bin/../lib/gcc/arm-none-eabi/6.3.1/../../../../arm-none-eabi/lib/thumb/v7e-m/libc_nano.a(lib_a-mbtowc_r.o)
 .bss           0x0000000000000000        0x0 /home/deepika/Tools_controller/gcc-arm-none-eabi-6-2017-q2-update/bin/../lib/gcc/arm-none-eabi/6.3.1/../../../../arm-none-eabi/lib/thumb/v7e-m/libc_nano.a(lib_a-mbtowc_r.o)
 .text._mbtowc_r
                0x0000000000000000       0x24 /home/deepika/Tools_controller/gcc-arm-none-eabi-6-2017-q2-update/bin/../lib/gcc/arm-none-eabi/6.3.1/../../../../arm-none-eabi/lib/thumb/v7e-m/libc_nano.a(lib_a-mbtowc_r.o)
 .text          0x0000000000000000        0x0 /home/deepika/Tools_controller/gcc-arm-none-eabi-6-2017-q2-update/bin/../lib/gcc/arm-none-eabi/6.3.1/../../../../arm-none-eabi/lib/thumb/v7e-m/libc_nano.a(lib_a-nano-svfprintf.o)
 .data          0x0000000000000000        0x0 /home/deepika/Tools_controller/gcc-arm-none-eabi-6-2017-q2-update/bin/../lib/gcc/arm-none-eabi/6.3.1/../../../../arm-none-eabi/lib/thumb/v7e-m/libc_nano.a(lib_a-nano-svfprintf.o)
 .bss           0x0000000000000000        0x0 /home/deepika/Tools_controller/gcc-arm-none-eabi-6-2017-q2-update/bin/../lib/gcc/arm-none-eabi/6.3.1/../../../../arm-none-eabi/lib/thumb/v7e-m/libc_nano.a(lib_a-nano-svfprintf.o)
 .text.__ssprint_r
                0x0000000000000000       0xf4 /home/deepika/Tools_controller/gcc-arm-none-eabi-6-2017-q2-update/bin/../lib/gcc/arm-none-eabi/6.3.1/../../../../arm-none-eabi/lib/thumb/v7e-m/libc_nano.a(lib_a-nano-svfprintf.o)
 .text          0x0000000000000000        0x0 /home/deepika/Tools_controller/gcc-arm-none-eabi-6-2017-q2-update/bin/../lib/gcc/arm-none-eabi/6.3.1/../../../../arm-none-eabi/lib/thumb/v7e-m/libc_nano.a(lib_a-nano-vfprintf_i.o)
 .data          0x0000000000000000        0x0 /home/deepika/Tools_controller/gcc-arm-none-eabi-6-2017-q2-update/bin/../lib/gcc/arm-none-eabi/6.3.1/../../../../arm-none-eabi/lib/thumb/v7e-m/libc_nano.a(lib_a-nano-vfprintf_i.o)
 .bss           0x0000000000000000        0x0 /home/deepika/Tools_controller/gcc-arm-none-eabi-6-2017-q2-update/bin/../lib/gcc/arm-none-eabi/6.3.1/../../../../arm-none-eabi/lib/thumb/v7e-m/libc_nano.a(lib_a-nano-vfprintf_i.o)
 .text          0x0000000000000000        0x0 /home/deepika/Tools_controller/gcc-arm-none-eabi-6-2017-q2-update/bin/../lib/gcc/arm-none-eabi/6.3.1/../../../../arm-none-eabi/lib/thumb/v7e-m/libc_nano.a(lib_a-wctomb_r.o)
 .data          0x0000000000000000        0x0 /home/deepika/Tools_controller/gcc-arm-none-eabi-6-2017-q2-update/bin/../lib/gcc/arm-none-eabi/6.3.1/../../../../arm-none-eabi/lib/thumb/v7e-m/libc_nano.a(lib_a-wctomb_r.o)
 .bss           0x0000000000000000        0x0 /home/deepika/Tools_controller/gcc-arm-none-eabi-6-2017-q2-update/bin/../lib/gcc/arm-none-eabi/6.3.1/../../../../arm-none-eabi/lib/thumb/v7e-m/libc_nano.a(lib_a-wctomb_r.o)
 .text._wctomb_r
                0x0000000000000000       0x24 /home/deepika/Tools_controller/gcc-arm-none-eabi-6-2017-q2-update/bin/../lib/gcc/arm-none-eabi/6.3.1/../../../../arm-none-eabi/lib/thumb/v7e-m/libc_nano.a(lib_a-wctomb_r.o)
 .text          0x0000000000000000        0x0 /home/deepika/Tools_controller/gcc-arm-none-eabi-6-2017-q2-update/bin/../lib/gcc/arm-none-eabi/6.3.1/../../../../arm-none-eabi/lib/thumb/v7e-m/libc_nano.a(lib_a-ctype_.o)
 .data          0x0000000000000000        0x0 /home/deepika/Tools_controller/gcc-arm-none-eabi-6-2017-q2-update/bin/../lib/gcc/arm-none-eabi/6.3.1/../../../../arm-none-eabi/lib/thumb/v7e-m/libc_nano.a(lib_a-ctype_.o)
 .bss           0x0000000000000000        0x0 /home/deepika/Tools_controller/gcc-arm-none-eabi-6-2017-q2-update/bin/../lib/gcc/arm-none-eabi/6.3.1/../../../../arm-none-eabi/lib/thumb/v7e-m/libc_nano.a(lib_a-ctype_.o)
 .data          0x0000000000000000        0x0 /home/deepika/Tools_controller/gcc-arm-none-eabi-6-2017-q2-update/bin/../lib/gcc/arm-none-eabi/6.3.1/../../../../arm-none-eabi/lib/thumb/v7e-m/libc_nano.a(lib_a-memchr.o)
 .bss           0x0000000000000000        0x0 /home/deepika/Tools_controller/gcc-arm-none-eabi-6-2017-q2-update/bin/../lib/gcc/arm-none-eabi/6.3.1/../../../../arm-none-eabi/lib/thumb/v7e-m/libc_nano.a(lib_a-memchr.o)
 .text          0x0000000000000000        0x0 /home/deepika/Tools_controller/gcc-arm-none-eabi-6-2017-q2-update/bin/../lib/gcc/arm-none-eabi/6.3.1/../../../../arm-none-eabi/lib/thumb/v7e-m/libc_nano.a(lib_a-memmove.o)
 .data          0x0000000000000000        0x0 /home/deepika/Tools_controller/gcc-arm-none-eabi-6-2017-q2-update/bin/../lib/gcc/arm-none-eabi/6.3.1/../../../../arm-none-eabi/lib/thumb/v7e-m/libc_nano.a(lib_a-memmove.o)
 .bss           0x0000000000000000        0x0 /home/deepika/Tools_controller/gcc-arm-none-eabi-6-2017-q2-update/bin/../lib/gcc/arm-none-eabi/6.3.1/../../../../arm-none-eabi/lib/thumb/v7e-m/libc_nano.a(lib_a-memmove.o)
 .text          0x0000000000000000        0x0 /home/deepika/Tools_controller/gcc-arm-none-eabi-6-2017-q2-update/bin/../lib/gcc/arm-none-eabi/6.3.1/../../../../arm-none-eabi/lib/thumb/v7e-m/libc_nano.a(lib_a-nano-freer.o)
 .data          0x0000000000000000        0x0 /home/deepika/Tools_controller/gcc-arm-none-eabi-6-2017-q2-update/bin/../lib/gcc/arm-none-eabi/6.3.1/../../../../arm-none-eabi/lib/thumb/v7e-m/libc_nano.a(lib_a-nano-freer.o)
 .bss           0x0000000000000000        0x0 /home/deepika/Tools_controller/gcc-arm-none-eabi-6-2017-q2-update/bin/../lib/gcc/arm-none-eabi/6.3.1/../../../../arm-none-eabi/lib/thumb/v7e-m/libc_nano.a(lib_a-nano-freer.o)
 .text          0x0000000000000000        0x0 /home/deepika/Tools_controller/gcc-arm-none-eabi-6-2017-q2-update/bin/../lib/gcc/arm-none-eabi/6.3.1/../../../../arm-none-eabi/lib/thumb/v7e-m/libc_nano.a(lib_a-nano-mallocr.o)
 .data          0x0000000000000000        0x0 /home/deepika/Tools_controller/gcc-arm-none-eabi-6-2017-q2-update/bin/../lib/gcc/arm-none-eabi/6.3.1/../../../../arm-none-eabi/lib/thumb/v7e-m/libc_nano.a(lib_a-nano-mallocr.o)
 .bss           0x0000000000000000        0x0 /home/deepika/Tools_controller/gcc-arm-none-eabi-6-2017-q2-update/bin/../lib/gcc/arm-none-eabi/6.3.1/../../../../arm-none-eabi/lib/thumb/v7e-m/libc_nano.a(lib_a-nano-mallocr.o)
 .text          0x0000000000000000        0x0 /home/deepika/Tools_controller/gcc-arm-none-eabi-6-2017-q2-update/bin/../lib/gcc/arm-none-eabi/6.3.1/../../../../arm-none-eabi/lib/thumb/v7e-m/libc_nano.a(lib_a-nano-reallocr.o)
 .data          0x0000000000000000        0x0 /home/deepika/Tools_controller/gcc-arm-none-eabi-6-2017-q2-update/bin/../lib/gcc/arm-none-eabi/6.3.1/../../../../arm-none-eabi/lib/thumb/v7e-m/libc_nano.a(lib_a-nano-reallocr.o)
 .bss           0x0000000000000000        0x0 /home/deepika/Tools_controller/gcc-arm-none-eabi-6-2017-q2-update/bin/../lib/gcc/arm-none-eabi/6.3.1/../../../../arm-none-eabi/lib/thumb/v7e-m/libc_nano.a(lib_a-nano-reallocr.o)
 .text          0x0000000000000000        0x0 /home/deepika/Tools_controller/gcc-arm-none-eabi-6-2017-q2-update/bin/../lib/gcc/arm-none-eabi/6.3.1/../../../../arm-none-eabi/lib/thumb/v7e-m/libc_nano.a(lib_a-sbrkr.o)
 .data          0x0000000000000000        0x0 /home/deepika/Tools_controller/gcc-arm-none-eabi-6-2017-q2-update/bin/../lib/gcc/arm-none-eabi/6.3.1/../../../../arm-none-eabi/lib/thumb/v7e-m/libc_nano.a(lib_a-sbrkr.o)
 .bss           0x0000000000000000        0x0 /home/deepika/Tools_controller/gcc-arm-none-eabi-6-2017-q2-update/bin/../lib/gcc/arm-none-eabi/6.3.1/../../../../arm-none-eabi/lib/thumb/v7e-m/libc_nano.a(lib_a-sbrkr.o)
 .text          0x0000000000000000        0x0 /home/deepika/Tools_controller/gcc-arm-none-eabi-6-2017-q2-update/bin/../lib/gcc/arm-none-eabi/6.3.1/../../../../arm-none-eabi/lib/thumb/v7e-m/libc_nano.a(lib_a-mlock.o)
 .data          0x0000000000000000        0x0 /home/deepika/Tools_controller/gcc-arm-none-eabi-6-2017-q2-update/bin/../lib/gcc/arm-none-eabi/6.3.1/../../../../arm-none-eabi/lib/thumb/v7e-m/libc_nano.a(lib_a-mlock.o)
 .bss           0x0000000000000000        0x0 /home/deepika/Tools_controller/gcc-arm-none-eabi-6-2017-q2-update/bin/../lib/gcc/arm-none-eabi/6.3.1/../../../../arm-none-eabi/lib/thumb/v7e-m/libc_nano.a(lib_a-mlock.o)
 .text          0x0000000000000000        0x0 /home/deepika/Tools_controller/gcc-arm-none-eabi-6-2017-q2-update/bin/../lib/gcc/arm-none-eabi/6.3.1/../../../../arm-none-eabi/lib/thumb/v7e-m/libc_nano.a(lib_a-nano-msizer.o)
 .data          0x0000000000000000        0x0 /home/deepika/Tools_controller/gcc-arm-none-eabi-6-2017-q2-update/bin/../lib/gcc/arm-none-eabi/6.3.1/../../../../arm-none-eabi/lib/thumb/v7e-m/libc_nano.a(lib_a-nano-msizer.o)
 .bss           0x0000000000000000        0x0 /home/deepika/Tools_controller/gcc-arm-none-eabi-6-2017-q2-update/bin/../lib/gcc/arm-none-eabi/6.3.1/../../../../arm-none-eabi/lib/thumb/v7e-m/libc_nano.a(lib_a-nano-msizer.o)
 .text          0x0000000000000000        0x0 /home/deepika/Tools_controller/gcc-arm-none-eabi-6-2017-q2-update/bin/../lib/gcc/arm-none-eabi/6.3.1/../../../../arm-none-eabi/lib/thumb/v7e-m/libc_nano.a(lib_a-reent.o)
 .data          0x0000000000000000        0x0 /home/deepika/Tools_controller/gcc-arm-none-eabi-6-2017-q2-update/bin/../lib/gcc/arm-none-eabi/6.3.1/../../../../arm-none-eabi/lib/thumb/v7e-m/libc_nano.a(lib_a-reent.o)
 .bss           0x0000000000000000        0x0 /home/deepika/Tools_controller/gcc-arm-none-eabi-6-2017-q2-update/bin/../lib/gcc/arm-none-eabi/6.3.1/../../../../arm-none-eabi/lib/thumb/v7e-m/libc_nano.a(lib_a-reent.o)
 .text.cleanup_glue
                0x0000000000000000       0x1a /home/deepika/Tools_controller/gcc-arm-none-eabi-6-2017-q2-update/bin/../lib/gcc/arm-none-eabi/6.3.1/../../../../arm-none-eabi/lib/thumb/v7e-m/libc_nano.a(lib_a-reent.o)
 .text._reclaim_reent
                0x0000000000000000       0xb8 /home/deepika/Tools_controller/gcc-arm-none-eabi-6-2017-q2-update/bin/../lib/gcc/arm-none-eabi/6.3.1/../../../../arm-none-eabi/lib/thumb/v7e-m/libc_nano.a(lib_a-reent.o)
 .data          0x0000000000000000        0x0 /home/deepika/Tools_controller/gcc-arm-none-eabi-6-2017-q2-update/bin/../lib/gcc/arm-none-eabi/6.3.1/thumb/v7e-m/libgcc.a(_arm_addsubdf3.o)
 .bss           0x0000000000000000        0x0 /home/deepika/Tools_controller/gcc-arm-none-eabi-6-2017-q2-update/bin/../lib/gcc/arm-none-eabi/6.3.1/thumb/v7e-m/libgcc.a(_arm_addsubdf3.o)
 .data          0x0000000000000000        0x0 /home/deepika/Tools_controller/gcc-arm-none-eabi-6-2017-q2-update/bin/../lib/gcc/arm-none-eabi/6.3.1/thumb/v7e-m/libgcc.a(_arm_muldivdf3.o)
 .bss           0x0000000000000000        0x0 /home/deepika/Tools_controller/gcc-arm-none-eabi-6-2017-q2-update/bin/../lib/gcc/arm-none-eabi/6.3.1/thumb/v7e-m/libgcc.a(_arm_muldivdf3.o)
 .data          0x0000000000000000        0x0 /home/deepika/Tools_controller/gcc-arm-none-eabi-6-2017-q2-update/bin/../lib/gcc/arm-none-eabi/6.3.1/thumb/v7e-m/libgcc.a(_arm_cmpdf2.o)
 .bss           0x0000000000000000        0x0 /home/deepika/Tools_controller/gcc-arm-none-eabi-6-2017-q2-update/bin/../lib/gcc/arm-none-eabi/6.3.1/thumb/v7e-m/libgcc.a(_arm_cmpdf2.o)
 .data          0x0000000000000000        0x0 /home/deepika/Tools_controller/gcc-arm-none-eabi-6-2017-q2-update/bin/../lib/gcc/arm-none-eabi/6.3.1/thumb/v7e-m/libgcc.a(_arm_fixdfsi.o)
 .bss           0x0000000000000000        0x0 /home/deepika/Tools_controller/gcc-arm-none-eabi-6-2017-q2-update/bin/../lib/gcc/arm-none-eabi/6.3.1/thumb/v7e-m/libgcc.a(_arm_fixdfsi.o)
 .data          0x0000000000000000        0x0 /home/deepika/Tools_controller/gcc-arm-none-eabi-6-2017-q2-update/bin/../lib/gcc/arm-none-eabi/6.3.1/thumb/v7e-m/libgcc.a(_arm_truncdfsf2.o)
 .bss           0x0000000000000000        0x0 /home/deepika/Tools_controller/gcc-arm-none-eabi-6-2017-q2-update/bin/../lib/gcc/arm-none-eabi/6.3.1/thumb/v7e-m/libgcc.a(_arm_truncdfsf2.o)
 .data          0x0000000000000000        0x0 /home/deepika/Tools_controller/gcc-arm-none-eabi-6-2017-q2-update/bin/../lib/gcc/arm-none-eabi/6.3.1/thumb/v7e-m/libgcc.a(_arm_addsubsf3.o)
 .bss           0x0000000000000000        0x0 /home/deepika/Tools_controller/gcc-arm-none-eabi-6-2017-q2-update/bin/../lib/gcc/arm-none-eabi/6.3.1/thumb/v7e-m/libgcc.a(_arm_addsubsf3.o)
 .data          0x0000000000000000        0x0 /home/deepika/Tools_controller/gcc-arm-none-eabi-6-2017-q2-update/bin/../lib/gcc/arm-none-eabi/6.3.1/thumb/v7e-m/libgcc.a(_arm_muldivsf3.o)
 .bss           0x0000000000000000        0x0 /home/deepika/Tools_controller/gcc-arm-none-eabi-6-2017-q2-update/bin/../lib/gcc/arm-none-eabi/6.3.1/thumb/v7e-m/libgcc.a(_arm_muldivsf3.o)
 .data          0x0000000000000000        0x0 /home/deepika/Tools_controller/gcc-arm-none-eabi-6-2017-q2-update/bin/../lib/gcc/arm-none-eabi/6.3.1/thumb/v7e-m/libgcc.a(_arm_fixsfsi.o)
 .bss           0x0000000000000000        0x0 /home/deepika/Tools_controller/gcc-arm-none-eabi-6-2017-q2-update/bin/../lib/gcc/arm-none-eabi/6.3.1/thumb/v7e-m/libgcc.a(_arm_fixsfsi.o)
 .text          0x0000000000000000        0x0 /home/deepika/Tools_controller/gcc-arm-none-eabi-6-2017-q2-update/bin/../lib/gcc/arm-none-eabi/6.3.1/../../../../arm-none-eabi/lib/thumb/v7e-m/libnosys.a(sbrk.o)
 .data          0x0000000000000000        0x0 /home/deepika/Tools_controller/gcc-arm-none-eabi-6-2017-q2-update/bin/../lib/gcc/arm-none-eabi/6.3.1/../../../../arm-none-eabi/lib/thumb/v7e-m/libnosys.a(sbrk.o)
 .bss           0x0000000000000000        0x0 /home/deepika/Tools_controller/gcc-arm-none-eabi-6-2017-q2-update/bin/../lib/gcc/arm-none-eabi/6.3.1/../../../../arm-none-eabi/lib/thumb/v7e-m/libnosys.a(sbrk.o)
 .text          0x0000000000000000        0x0 /home/deepika/Tools_controller/gcc-arm-none-eabi-6-2017-q2-update/bin/../lib/gcc/arm-none-eabi/6.3.1/../../../../arm-none-eabi/lib/thumb/v7e-m/libnosys.a(_exit.o)
 .data          0x0000000000000000        0x0 /home/deepika/Tools_controller/gcc-arm-none-eabi-6-2017-q2-update/bin/../lib/gcc/arm-none-eabi/6.3.1/../../../../arm-none-eabi/lib/thumb/v7e-m/libnosys.a(_exit.o)
 .bss           0x0000000000000000        0x0 /home/deepika/Tools_controller/gcc-arm-none-eabi-6-2017-q2-update/bin/../lib/gcc/arm-none-eabi/6.3.1/../../../../arm-none-eabi/lib/thumb/v7e-m/libnosys.a(_exit.o)
 .text          0x0000000000000000        0x0 /home/deepika/Tools_controller/gcc-arm-none-eabi-6-2017-q2-update/bin/../lib/gcc/arm-none-eabi/6.3.1/thumb/v7e-m/crtend.o
 .data          0x0000000000000000        0x0 /home/deepika/Tools_controller/gcc-arm-none-eabi-6-2017-q2-update/bin/../lib/gcc/arm-none-eabi/6.3.1/thumb/v7e-m/crtend.o
 .bss           0x0000000000000000        0x0 /home/deepika/Tools_controller/gcc-arm-none-eabi-6-2017-q2-update/bin/../lib/gcc/arm-none-eabi/6.3.1/thumb/v7e-m/crtend.o
 .eh_frame      0x0000000000000000        0x4 /home/deepika/Tools_controller/gcc-arm-none-eabi-6-2017-q2-update/bin/../lib/gcc/arm-none-eabi/6.3.1/thumb/v7e-m/crtend.o
 .text          0x0000000000000000        0x0 /home/deepika/Tools_controller/gcc-arm-none-eabi-6-2017-q2-update/bin/../lib/gcc/arm-none-eabi/6.3.1/thumb/v7e-m/crtn.o
 .data          0x0000000000000000        0x0 /home/deepika/Tools_controller/gcc-arm-none-eabi-6-2017-q2-update/bin/../lib/gcc/arm-none-eabi/6.3.1/thumb/v7e-m/crtn.o
 .bss           0x0000000000000000        0x0 /home/deepika/Tools_controller/gcc-arm-none-eabi-6-2017-q2-update/bin/../lib/gcc/arm-none-eabi/6.3.1/thumb/v7e-m/crtn.o

Memory Configuration

Name             Origin             Length             Attributes
m_startup        0x000000001f800000 0x0000000000000100 xr
m_interrupts     0x000000001f800100 0x0000000000000240 xr
m_text           0x000000001f800340 0x0000000000011a00 xr
m_data           0x000000001f811d40 0x000000000000a000 rw
m_dtcm           0x0000000020000000 0x0000000000010000 rw
*default*        0x0000000000000000 0xffffffffffffffff

Linker script and memory map

LOAD /home/deepika/Tools_controller/gcc-arm-none-eabi-6-2017-q2-update/bin/../lib/gcc/arm-none-eabi/6.3.1/thumb/v7e-m/crti.o
LOAD /home/deepika/Tools_controller/gcc-arm-none-eabi-6-2017-q2-update/bin/../lib/gcc/arm-none-eabi/6.3.1/thumb/v7e-m/crtbegin.o
LOAD /home/deepika/Tools_controller/gcc-arm-none-eabi-6-2017-q2-update/bin/../lib/gcc/arm-none-eabi/6.3.1/../../../../arm-none-eabi/lib/thumb/v7e-m/crt0.o
LOAD /home/deepika/Tools_controller/gcc-arm-none-eabi-6-2017-q2-update/bin/../lib/gcc/arm-none-eabi/6.3.1/../../../../arm-none-eabi/lib/thumb/v7e-m/libm.a
LOAD CMakeFiles/la9310.dir/home/deepika/21_sept_macro_changes/PS_NLM_5G_LAT/nlm_controller/Source/portable/GCC/ARM_CM4/port.c.obj
LOAD CMakeFiles/la9310.dir/home/deepika/21_sept_macro_changes/PS_NLM_5G_LAT/nlm_controller/Source/portable/MemMang/heap_2.c.obj
LOAD CMakeFiles/la9310.dir/home/deepika/21_sept_macro_changes/PS_NLM_5G_LAT/nlm_controller/Source/croutine.c.obj
LOAD CMakeFiles/la9310.dir/home/deepika/21_sept_macro_changes/PS_NLM_5G_LAT/nlm_controller/Source/event_groups.c.obj
LOAD CMakeFiles/la9310.dir/home/deepika/21_sept_macro_changes/PS_NLM_5G_LAT/nlm_controller/Source/list.c.obj
LOAD CMakeFiles/la9310.dir/home/deepika/21_sept_macro_changes/PS_NLM_5G_LAT/nlm_controller/Source/queue.c.obj
LOAD CMakeFiles/la9310.dir/home/deepika/21_sept_macro_changes/PS_NLM_5G_LAT/nlm_controller/Source/tasks.c.obj
LOAD CMakeFiles/la9310.dir/home/deepika/21_sept_macro_changes/PS_NLM_5G_LAT/nlm_controller/Source/timers.c.obj
LOAD CMakeFiles/la9310.dir/drivers/serial/debug_console.c.obj
LOAD CMakeFiles/la9310.dir/drivers/serial/print_scan.c.obj
LOAD CMakeFiles/la9310.dir/drivers/serial/serial_ns16550.c.obj
LOAD CMakeFiles/la9310.dir/drivers/serial/nmm_logging.c.obj
LOAD CMakeFiles/la9310.dir/drivers/edma/la9310_edma.c.obj
LOAD CMakeFiles/la9310.dir/drivers/misc/mem_log.c.obj
LOAD CMakeFiles/la9310.dir/drivers/watchdog/la9310_watchdog.c.obj
LOAD CMakeFiles/la9310.dir/platform/ARM_CM4/soc.c.obj
LOAD CMakeFiles/la9310.dir/platform/ARM_CM4/start.S.obj
LOAD CMakeFiles/la9310.dir/platform/boards/la9310/board.c.obj
LOAD CMakeFiles/la9310.dir/platform/ARM_CM4/exceptions.c.obj
LOAD CMakeFiles/la9310.dir/platform/boards/la9310/hardware_init.c.obj
LOAD CMakeFiles/la9310.dir/main.c.obj
LOAD CMakeFiles/la9310.dir/cmd_ctrl_vspa_intfce.c.obj
LOAD CMakeFiles/la9310.dir/nmm_avi.c.obj
LOAD CMakeFiles/la9310.dir/nmm_app.c.obj
LOAD CMakeFiles/la9310.dir/la9310_irq.c.obj
LOAD CMakeFiles/la9310.dir/la9310_v2h_test.c.obj
LOAD CMakeFiles/la9310.dir/drivers/misc/bbdev_ipc.c.obj
LOAD CMakeFiles/la9310.dir/drivers/avi/la9310_avi.c.obj
LOAD CMakeFiles/la9310.dir/drivers/misc/la9310_gpio.c.obj
LOAD CMakeFiles/la9310.dir/drivers/misc/la9310_pinmux.c.obj
LOAD CMakeFiles/la9310.dir/drivers/i2c/la9310_i2c.c.obj
LOAD CMakeFiles/la9310.dir/drivers/pcie/la9310_pcie.c.obj
LOAD CMakeFiles/la9310.dir/drivers/dspi/fsl_dspi.c.obj
LOAD CMakeFiles/la9310.dir/drivers/dspi/dspi_test.c.obj
LOAD CMakeFiles/la9310.dir/drivers/phy_timer/phytimer.c.obj
LOAD CMakeFiles/la9310.dir/drivers/timesync/sync_timing_device.c.obj
LOAD CMakeFiles/la9310.dir/sw_cmd_engine/sw_cmd_engine.c.obj
LOAD CMakeFiles/la9310.dir/utils/delay.c.obj
LOAD CMakeFiles/la9310.dir/drivers/dcs/la9310_dcs.c.obj
LOAD CMakeFiles/la9310.dir/utils/FreeRTOS-Plus-CLI-Source/FreeRTOS_CLI.c.obj
LOAD CMakeFiles/la9310.dir/utils/command_from_shell.c.obj
LOAD CMakeFiles/la9310.dir/utils/la9310_nlm_test_command.c.obj
LOAD CMakeFiles/la9310.dir/utils/UARTCommandConsole.c.obj
LOAD CMakeFiles/la9310.dir/drivers/timesync/sync_timing_device_cli.c.obj
LOAD CMakeFiles/la9310.dir/drivers/rfic/rfic_init.c.obj
LOAD CMakeFiles/la9310.dir/drivers/rfic/rfic_core.c.obj
LOAD CMakeFiles/la9310.dir/drivers/rfic/rfic_avi_ctrl.c.obj
LOAD CMakeFiles/la9310.dir/drivers/rfic/rfic_api.c.obj
LOAD CMakeFiles/la9310.dir/drivers/rfic/rfic_vga.c.obj
LOAD CMakeFiles/la9310.dir/drivers/rfic/rfic_synth.c.obj
LOAD CMakeFiles/la9310.dir/drivers/rfic/rfic_demod.c.obj
LOAD CMakeFiles/la9310.dir/drivers/rfic/rfic_cmd.c.obj
LOAD CMakeFiles/la9310.dir/drivers/rfic/rfic_dac.c.obj
START GROUP
LOAD /home/deepika/Tools_controller/gcc-arm-none-eabi-6-2017-q2-update/bin/../lib/gcc/arm-none-eabi/6.3.1/../../../../arm-none-eabi/lib/thumb/v7e-m/libm.a
LOAD /home/deepika/Tools_controller/gcc-arm-none-eabi-6-2017-q2-update/bin/../lib/gcc/arm-none-eabi/6.3.1/../../../../arm-none-eabi/lib/thumb/v7e-m/libc_nano.a
LOAD /home/deepika/Tools_controller/gcc-arm-none-eabi-6-2017-q2-update/bin/../lib/gcc/arm-none-eabi/6.3.1/thumb/v7e-m/libgcc.a
LOAD /home/deepika/Tools_controller/gcc-arm-none-eabi-6-2017-q2-update/bin/../lib/gcc/arm-none-eabi/6.3.1/../../../../arm-none-eabi/lib/thumb/v7e-m/libnosys.a
END GROUP
START GROUP
LOAD /home/deepika/Tools_controller/gcc-arm-none-eabi-6-2017-q2-update/bin/../lib/gcc/arm-none-eabi/6.3.1/thumb/v7e-m/libgcc.a
LOAD /home/deepika/Tools_controller/gcc-arm-none-eabi-6-2017-q2-update/bin/../lib/gcc/arm-none-eabi/6.3.1/../../../../arm-none-eabi/lib/thumb/v7e-m/libg_nano.a
LOAD /home/deepika/Tools_controller/gcc-arm-none-eabi-6-2017-q2-update/bin/../lib/gcc/arm-none-eabi/6.3.1/../../../../arm-none-eabi/lib/thumb/v7e-m/libc_nano.a
END GROUP
START GROUP
LOAD /home/deepika/Tools_controller/gcc-arm-none-eabi-6-2017-q2-update/bin/../lib/gcc/arm-none-eabi/6.3.1/thumb/v7e-m/libgcc.a
LOAD /home/deepika/Tools_controller/gcc-arm-none-eabi-6-2017-q2-update/bin/../lib/gcc/arm-none-eabi/6.3.1/../../../../arm-none-eabi/lib/thumb/v7e-m/libc_nano.a
END GROUP
LOAD /home/deepika/Tools_controller/gcc-arm-none-eabi-6-2017-q2-update/bin/../lib/gcc/arm-none-eabi/6.3.1/thumb/v7e-m/crtend.o
LOAD /home/deepika/Tools_controller/gcc-arm-none-eabi-6-2017-q2-update/bin/../lib/gcc/arm-none-eabi/6.3.1/thumb/v7e-m/crtn.o
                0x0000000000003000                STACK_SIZE = 0x3000
                0x0000000000000200                HEAP_SIZE = 0x200

.startup        0x000000001f800000       0x40
                0x000000001f800000                . = ALIGN (0x4)
 *(.start_up)
 .start_up      0x000000001f800000       0x40 CMakeFiles/la9310.dir/platform/ARM_CM4/start.S.obj
                0x000000001f800000                m4_startup
                0x000000001f800040                . = ALIGN (0x4)

.interrupts     0x000000001f800100      0x240
                0x000000001f800100                __VECTOR_TABLE = .
                0x000000001f800100                . = ALIGN (0x4)
 *(.isr_vector)
 .isr_vector    0x000000001f800100      0x240 CMakeFiles/la9310.dir/platform/ARM_CM4/start.S.obj
                0x000000001f800100                __isr_vector
                0x000000001f800340                . = ALIGN (0x4)

.text           0x000000001f800340     0xf734
                0x000000001f800340                . = ALIGN (0x4)
 *(.text)
 .text          0x000000001f800340       0x6c /home/deepika/Tools_controller/gcc-arm-none-eabi-6-2017-q2-update/bin/../lib/gcc/arm-none-eabi/6.3.1/thumb/v7e-m/crtbegin.o
 .text          0x000000001f8003ac       0x74 /home/deepika/Tools_controller/gcc-arm-none-eabi-6-2017-q2-update/bin/../lib/gcc/arm-none-eabi/6.3.1/../../../../arm-none-eabi/lib/thumb/v7e-m/crt0.o
                0x000000001f8003ac                _mainCRTStartup
                0x000000001f8003ac                _start
 .text          0x000000001f800420        0xc CMakeFiles/la9310.dir/platform/ARM_CM4/start.S.obj
                0x000000001f800420                Reset_Handler
                0x000000001f800428                DebugMon_Handler
                0x000000001f800428                NMI_Handler
                0x000000001f800428                UsageFault_Handler
                0x000000001f800428                DefaultISR
                0x000000001f800428                MemManage_Handler
                0x000000001f800428                BusFault_Handler
 .text          0x000000001f80042c       0x10 /home/deepika/Tools_controller/gcc-arm-none-eabi-6-2017-q2-update/bin/../lib/gcc/arm-none-eabi/6.3.1/../../../../arm-none-eabi/lib/thumb/v7e-m/libc_nano.a(lib_a-strlen.o)
                0x000000001f80042c                strlen
 *fill*         0x000000001f80043c        0x4 
 .text          0x000000001f800440       0xa0 /home/deepika/Tools_controller/gcc-arm-none-eabi-6-2017-q2-update/bin/../lib/gcc/arm-none-eabi/6.3.1/../../../../arm-none-eabi/lib/thumb/v7e-m/libc_nano.a(lib_a-memchr.o)
                0x000000001f800440                memchr
 .text          0x000000001f8004e0      0x370 /home/deepika/Tools_controller/gcc-arm-none-eabi-6-2017-q2-update/bin/../lib/gcc/arm-none-eabi/6.3.1/thumb/v7e-m/libgcc.a(_arm_addsubdf3.o)
                0x000000001f8004e0                __aeabi_drsub
                0x000000001f8004e8                __aeabi_dsub
                0x000000001f8004e8                __subdf3
                0x000000001f8004ec                __adddf3
                0x000000001f8004ec                __aeabi_dadd
                0x000000001f800764                __aeabi_ui2d
                0x000000001f800764                __floatunsidf
                0x000000001f800784                __floatsidf
                0x000000001f800784                __aeabi_i2d
                0x000000001f8007a8                __extendsfdf2
                0x000000001f8007a8                __aeabi_f2d
                0x000000001f8007e4                __aeabi_ul2d
                0x000000001f8007e4                __floatundidf
                0x000000001f8007f4                __floatdidf
                0x000000001f8007f4                __aeabi_l2d
 .text          0x000000001f800850      0x424 /home/deepika/Tools_controller/gcc-arm-none-eabi-6-2017-q2-update/bin/../lib/gcc/arm-none-eabi/6.3.1/thumb/v7e-m/libgcc.a(_arm_muldivdf3.o)
                0x000000001f800850                __aeabi_dmul
                0x000000001f800850                __muldf3
                0x000000001f800aa4                __aeabi_ddiv
                0x000000001f800aa4                __divdf3
 .text          0x000000001f800c74      0x110 /home/deepika/Tools_controller/gcc-arm-none-eabi-6-2017-q2-update/bin/../lib/gcc/arm-none-eabi/6.3.1/thumb/v7e-m/libgcc.a(_arm_cmpdf2.o)
                0x000000001f800c74                __gtdf2
                0x000000001f800c74                __gedf2
                0x000000001f800c7c                __ltdf2
                0x000000001f800c7c                __ledf2
                0x000000001f800c84                __cmpdf2
                0x000000001f800c84                __eqdf2
                0x000000001f800c84                __nedf2
                0x000000001f800d00                __aeabi_cdrcmple
                0x000000001f800d10                __aeabi_cdcmple
                0x000000001f800d10                __aeabi_cdcmpeq
                0x000000001f800d20                __aeabi_dcmpeq
                0x000000001f800d34                __aeabi_dcmplt
                0x000000001f800d48                __aeabi_dcmple
                0x000000001f800d5c                __aeabi_dcmpge
                0x000000001f800d70                __aeabi_dcmpgt
 .text          0x000000001f800d84       0x50 /home/deepika/Tools_controller/gcc-arm-none-eabi-6-2017-q2-update/bin/../lib/gcc/arm-none-eabi/6.3.1/thumb/v7e-m/libgcc.a(_arm_fixdfsi.o)
                0x000000001f800d84                __fixdfsi
                0x000000001f800d84                __aeabi_d2iz
 .text          0x000000001f800dd4       0xa0 /home/deepika/Tools_controller/gcc-arm-none-eabi-6-2017-q2-update/bin/../lib/gcc/arm-none-eabi/6.3.1/thumb/v7e-m/libgcc.a(_arm_truncdfsf2.o)
                0x000000001f800dd4                __aeabi_d2f
                0x000000001f800dd4                __truncdfsf2
 .text          0x000000001f800e74      0x21c /home/deepika/Tools_controller/gcc-arm-none-eabi-6-2017-q2-update/bin/../lib/gcc/arm-none-eabi/6.3.1/thumb/v7e-m/libgcc.a(_arm_addsubsf3.o)
                0x000000001f800e74                __aeabi_frsub
                0x000000001f800e7c                __subsf3
                0x000000001f800e7c                __aeabi_fsub
                0x000000001f800e80                __aeabi_fadd
                0x000000001f800e80                __addsf3
                0x000000001f800fe0                __aeabi_ui2f
                0x000000001f800fe0                __floatunsisf
                0x000000001f800fe8                __aeabi_i2f
                0x000000001f800fe8                __floatsisf
                0x000000001f801004                __floatundisf
                0x000000001f801004                __aeabi_ul2f
                0x000000001f801014                __floatdisf
                0x000000001f801014                __aeabi_l2f
 .text          0x000000001f801090      0x2a0 /home/deepika/Tools_controller/gcc-arm-none-eabi-6-2017-q2-update/bin/../lib/gcc/arm-none-eabi/6.3.1/thumb/v7e-m/libgcc.a(_arm_muldivsf3.o)
                0x000000001f801090                __mulsf3
                0x000000001f801090                __aeabi_fmul
                0x000000001f8011f8                __divsf3
                0x000000001f8011f8                __aeabi_fdiv
 .text          0x000000001f801330       0x4c /home/deepika/Tools_controller/gcc-arm-none-eabi-6-2017-q2-update/bin/../lib/gcc/arm-none-eabi/6.3.1/thumb/v7e-m/libgcc.a(_arm_fixsfsi.o)
                0x000000001f801330                __fixsfsi
                0x000000001f801330                __aeabi_f2iz
 *(.text*)
 .text.prvTaskExitError
                0x000000001f80137c       0x30 CMakeFiles/la9310.dir/home/deepika/21_sept_macro_changes/PS_NLM_5G_LAT/nlm_controller/Source/portable/GCC/ARM_CM4/port.c.obj
 .text.prvPortStartFirstTask
                0x000000001f8013ac       0x20 CMakeFiles/la9310.dir/home/deepika/21_sept_macro_changes/PS_NLM_5G_LAT/nlm_controller/Source/portable/GCC/ARM_CM4/port.c.obj
 .text.pxPortInitialiseStack
                0x000000001f8013cc       0x24 CMakeFiles/la9310.dir/home/deepika/21_sept_macro_changes/PS_NLM_5G_LAT/nlm_controller/Source/portable/GCC/ARM_CM4/port.c.obj
                0x000000001f8013cc                pxPortInitialiseStack
 .text.SVC_Handler
                0x000000001f8013f0       0x24 CMakeFiles/la9310.dir/home/deepika/21_sept_macro_changes/PS_NLM_5G_LAT/nlm_controller/Source/portable/GCC/ARM_CM4/port.c.obj
                0x000000001f8013f0                SVC_Handler
 .text.vPortEnterCritical
                0x000000001f801414       0x44 CMakeFiles/la9310.dir/home/deepika/21_sept_macro_changes/PS_NLM_5G_LAT/nlm_controller/Source/portable/GCC/ARM_CM4/port.c.obj
                0x000000001f801414                vPortEnterCritical
 .text.vPortExitCritical
                0x000000001f801458       0x28 CMakeFiles/la9310.dir/home/deepika/21_sept_macro_changes/PS_NLM_5G_LAT/nlm_controller/Source/portable/GCC/ARM_CM4/port.c.obj
                0x000000001f801458                vPortExitCritical
 .text.PendSV_Handler
                0x000000001f801480       0x54 CMakeFiles/la9310.dir/home/deepika/21_sept_macro_changes/PS_NLM_5G_LAT/nlm_controller/Source/portable/GCC/ARM_CM4/port.c.obj
                0x000000001f801480                PendSV_Handler
 .text.SysTick_Handler
                0x000000001f8014d4       0x2c CMakeFiles/la9310.dir/home/deepika/21_sept_macro_changes/PS_NLM_5G_LAT/nlm_controller/Source/portable/GCC/ARM_CM4/port.c.obj
                0x000000001f8014d4                SysTick_Handler
 .text.vPortSetupTimerInterrupt
                0x000000001f801500       0x18 CMakeFiles/la9310.dir/home/deepika/21_sept_macro_changes/PS_NLM_5G_LAT/nlm_controller/Source/portable/GCC/ARM_CM4/port.c.obj
                0x000000001f801500                vPortSetupTimerInterrupt
 .text.xPortStartScheduler
                0x000000001f801518       0x98 CMakeFiles/la9310.dir/home/deepika/21_sept_macro_changes/PS_NLM_5G_LAT/nlm_controller/Source/portable/GCC/ARM_CM4/port.c.obj
                0x000000001f801518                xPortStartScheduler
 .text.vPortValidateInterruptPriority
                0x000000001f8015b0       0x5c CMakeFiles/la9310.dir/home/deepika/21_sept_macro_changes/PS_NLM_5G_LAT/nlm_controller/Source/portable/GCC/ARM_CM4/port.c.obj
                0x000000001f8015b0                vPortValidateInterruptPriority
 .text.pvPortMalloc
                0x000000001f80160c       0xb8 CMakeFiles/la9310.dir/home/deepika/21_sept_macro_changes/PS_NLM_5G_LAT/nlm_controller/Source/portable/MemMang/heap_2.c.obj
                0x000000001f80160c                pvPortMalloc
 .text.vPortFree
                0x000000001f8016c4       0x44 CMakeFiles/la9310.dir/home/deepika/21_sept_macro_changes/PS_NLM_5G_LAT/nlm_controller/Source/portable/MemMang/heap_2.c.obj
                0x000000001f8016c4                vPortFree
 .text.xEventGroupCreate
                0x000000001f801708       0x1a CMakeFiles/la9310.dir/home/deepika/21_sept_macro_changes/PS_NLM_5G_LAT/nlm_controller/Source/event_groups.c.obj
                0x000000001f801708                xEventGroupCreate
 *fill*         0x000000001f801722        0x2 
 .text.xEventGroupWaitBits
                0x000000001f801724      0x114 CMakeFiles/la9310.dir/home/deepika/21_sept_macro_changes/PS_NLM_5G_LAT/nlm_controller/Source/event_groups.c.obj
                0x000000001f801724                xEventGroupWaitBits
 .text.xEventGroupSetBits
                0x000000001f801838       0x82 CMakeFiles/la9310.dir/home/deepika/21_sept_macro_changes/PS_NLM_5G_LAT/nlm_controller/Source/event_groups.c.obj
                0x000000001f801838                xEventGroupSetBits
 .text.vEventGroupSetBitsCallback
                0x000000001f8018ba        0x4 CMakeFiles/la9310.dir/home/deepika/21_sept_macro_changes/PS_NLM_5G_LAT/nlm_controller/Source/event_groups.c.obj
                0x000000001f8018ba                vEventGroupSetBitsCallback
 .text.vListInitialise
                0x000000001f8018be       0x16 CMakeFiles/la9310.dir/home/deepika/21_sept_macro_changes/PS_NLM_5G_LAT/nlm_controller/Source/list.c.obj
                0x000000001f8018be                vListInitialise
 .text.vListInitialiseItem
                0x000000001f8018d4        0x6 CMakeFiles/la9310.dir/home/deepika/21_sept_macro_changes/PS_NLM_5G_LAT/nlm_controller/Source/list.c.obj
                0x000000001f8018d4                vListInitialiseItem
 .text.vListInsertEnd
                0x000000001f8018da       0x18 CMakeFiles/la9310.dir/home/deepika/21_sept_macro_changes/PS_NLM_5G_LAT/nlm_controller/Source/list.c.obj
                0x000000001f8018da                vListInsertEnd
 .text.vListInsert
                0x000000001f8018f2       0x2e CMakeFiles/la9310.dir/home/deepika/21_sept_macro_changes/PS_NLM_5G_LAT/nlm_controller/Source/list.c.obj
                0x000000001f8018f2                vListInsert
 .text.uxListRemove
                0x000000001f801920       0x24 CMakeFiles/la9310.dir/home/deepika/21_sept_macro_changes/PS_NLM_5G_LAT/nlm_controller/Source/list.c.obj
                0x000000001f801920                uxListRemove
 .text.unlikely.prvCopyDataToQueue
                0x000000001f801944       0x66 CMakeFiles/la9310.dir/home/deepika/21_sept_macro_changes/PS_NLM_5G_LAT/nlm_controller/Source/queue.c.obj
 .text.unlikely.prvCopyDataFromQueue
                0x000000001f8019aa       0x26 CMakeFiles/la9310.dir/home/deepika/21_sept_macro_changes/PS_NLM_5G_LAT/nlm_controller/Source/queue.c.obj
 .text.xQueueGenericReset.part.1
                0x000000001f8019d0       0x12 CMakeFiles/la9310.dir/home/deepika/21_sept_macro_changes/PS_NLM_5G_LAT/nlm_controller/Source/queue.c.obj
 .text.prvNotifyQueueSetContainer
                0x000000001f8019e2       0x68 CMakeFiles/la9310.dir/home/deepika/21_sept_macro_changes/PS_NLM_5G_LAT/nlm_controller/Source/queue.c.obj
 .text.prvUnlockQueue
                0x000000001f801a4a       0x7e CMakeFiles/la9310.dir/home/deepika/21_sept_macro_changes/PS_NLM_5G_LAT/nlm_controller/Source/queue.c.obj
 .text.xQueueGenericReset
                0x000000001f801ac8       0x70 CMakeFiles/la9310.dir/home/deepika/21_sept_macro_changes/PS_NLM_5G_LAT/nlm_controller/Source/queue.c.obj
                0x000000001f801ac8                xQueueGenericReset
 .text.xQueueGenericCreate
                0x000000001f801b38       0x46 CMakeFiles/la9310.dir/home/deepika/21_sept_macro_changes/PS_NLM_5G_LAT/nlm_controller/Source/queue.c.obj
                0x000000001f801b38                xQueueGenericCreate
 *fill*         0x000000001f801b7e        0x2 
 .text.xQueueGenericSend
                0x000000001f801b80      0x180 CMakeFiles/la9310.dir/home/deepika/21_sept_macro_changes/PS_NLM_5G_LAT/nlm_controller/Source/queue.c.obj
                0x000000001f801b80                xQueueGenericSend
 .text.xQueueCreateMutex
                0x000000001f801d00       0x24 CMakeFiles/la9310.dir/home/deepika/21_sept_macro_changes/PS_NLM_5G_LAT/nlm_controller/Source/queue.c.obj
                0x000000001f801d00                xQueueCreateMutex
 .text.xQueueGenericSendFromISR
                0x000000001f801d24       0xd4 CMakeFiles/la9310.dir/home/deepika/21_sept_macro_changes/PS_NLM_5G_LAT/nlm_controller/Source/queue.c.obj
                0x000000001f801d24                xQueueGenericSendFromISR
 .text.xQueueGiveFromISR
                0x000000001f801df8       0xb8 CMakeFiles/la9310.dir/home/deepika/21_sept_macro_changes/PS_NLM_5G_LAT/nlm_controller/Source/queue.c.obj
                0x000000001f801df8                xQueueGiveFromISR
 .text.xQueueGenericReceive
                0x000000001f801eb0      0x188 CMakeFiles/la9310.dir/home/deepika/21_sept_macro_changes/PS_NLM_5G_LAT/nlm_controller/Source/queue.c.obj
                0x000000001f801eb0                xQueueGenericReceive
 .text.xQueueReceiveFromISR
                0x000000001f802038       0xa0 CMakeFiles/la9310.dir/home/deepika/21_sept_macro_changes/PS_NLM_5G_LAT/nlm_controller/Source/queue.c.obj
                0x000000001f802038                xQueueReceiveFromISR
 .text.uxQueueMessagesWaitingFromISR
                0x000000001f8020d8       0x18 CMakeFiles/la9310.dir/home/deepika/21_sept_macro_changes/PS_NLM_5G_LAT/nlm_controller/Source/queue.c.obj
                0x000000001f8020d8                uxQueueMessagesWaitingFromISR
 .text.vQueueAddToRegistry
                0x000000001f8020f0       0x24 CMakeFiles/la9310.dir/home/deepika/21_sept_macro_changes/PS_NLM_5G_LAT/nlm_controller/Source/queue.c.obj
                0x000000001f8020f0                vQueueAddToRegistry
 .text.vQueueWaitForMessageRestricted
                0x000000001f802114       0x46 CMakeFiles/la9310.dir/home/deepika/21_sept_macro_changes/PS_NLM_5G_LAT/nlm_controller/Source/queue.c.obj
                0x000000001f802114                vQueueWaitForMessageRestricted
 .text.prvIdleTask
                0x000000001f80215a        0x2 CMakeFiles/la9310.dir/home/deepika/21_sept_macro_changes/PS_NLM_5G_LAT/nlm_controller/Source/tasks.c.obj
 .text.prvResetNextTaskUnblockTime
                0x000000001f80215c       0x24 CMakeFiles/la9310.dir/home/deepika/21_sept_macro_changes/PS_NLM_5G_LAT/nlm_controller/Source/tasks.c.obj
 .text.prvAddCurrentTaskToDelayedList
                0x000000001f802180       0x8c CMakeFiles/la9310.dir/home/deepika/21_sept_macro_changes/PS_NLM_5G_LAT/nlm_controller/Source/tasks.c.obj
 .text.vTaskSetTimeOutState.part.5
                0x000000001f80220c       0x12 CMakeFiles/la9310.dir/home/deepika/21_sept_macro_changes/PS_NLM_5G_LAT/nlm_controller/Source/tasks.c.obj
 *fill*         0x000000001f80221e        0x2 
 .text.xTaskCreate
                0x000000001f802220      0x1b8 CMakeFiles/la9310.dir/home/deepika/21_sept_macro_changes/PS_NLM_5G_LAT/nlm_controller/Source/tasks.c.obj
                0x000000001f802220                xTaskCreate
 .text.vTaskStartScheduler
                0x000000001f8023d8       0x80 CMakeFiles/la9310.dir/home/deepika/21_sept_macro_changes/PS_NLM_5G_LAT/nlm_controller/Source/tasks.c.obj
                0x000000001f8023d8                vTaskStartScheduler
 .text.vTaskSuspendAll
                0x000000001f802458       0x10 CMakeFiles/la9310.dir/home/deepika/21_sept_macro_changes/PS_NLM_5G_LAT/nlm_controller/Source/tasks.c.obj
                0x000000001f802458                vTaskSuspendAll
 .text.xTaskGetTickCount
                0x000000001f802468        0xc CMakeFiles/la9310.dir/home/deepika/21_sept_macro_changes/PS_NLM_5G_LAT/nlm_controller/Source/tasks.c.obj
                0x000000001f802468                xTaskGetTickCount
 .text.xTaskGetTickCountFromISR
                0x000000001f802474       0x10 CMakeFiles/la9310.dir/home/deepika/21_sept_macro_changes/PS_NLM_5G_LAT/nlm_controller/Source/tasks.c.obj
                0x000000001f802474                xTaskGetTickCountFromISR
 .text.xTaskIncrementTick
                0x000000001f802484      0x124 CMakeFiles/la9310.dir/home/deepika/21_sept_macro_changes/PS_NLM_5G_LAT/nlm_controller/Source/tasks.c.obj
                0x000000001f802484                xTaskIncrementTick
 .text.xTaskResumeAll
                0x000000001f8025a8       0xf0 CMakeFiles/la9310.dir/home/deepika/21_sept_macro_changes/PS_NLM_5G_LAT/nlm_controller/Source/tasks.c.obj
                0x000000001f8025a8                xTaskResumeAll
 .text.vTaskDelay
                0x000000001f802698       0x48 CMakeFiles/la9310.dir/home/deepika/21_sept_macro_changes/PS_NLM_5G_LAT/nlm_controller/Source/tasks.c.obj
                0x000000001f802698                vTaskDelay
 .text.vTaskSwitchContext
                0x000000001f8026e0       0x74 CMakeFiles/la9310.dir/home/deepika/21_sept_macro_changes/PS_NLM_5G_LAT/nlm_controller/Source/tasks.c.obj
                0x000000001f8026e0                vTaskSwitchContext
 .text.vTaskPlaceOnEventList
                0x000000001f802754       0x34 CMakeFiles/la9310.dir/home/deepika/21_sept_macro_changes/PS_NLM_5G_LAT/nlm_controller/Source/tasks.c.obj
                0x000000001f802754                vTaskPlaceOnEventList
 .text.vTaskPlaceOnUnorderedEventList
                0x000000001f802788       0x58 CMakeFiles/la9310.dir/home/deepika/21_sept_macro_changes/PS_NLM_5G_LAT/nlm_controller/Source/tasks.c.obj
                0x000000001f802788                vTaskPlaceOnUnorderedEventList
 .text.vTaskPlaceOnEventListRestricted
                0x000000001f8027e0       0x3c CMakeFiles/la9310.dir/home/deepika/21_sept_macro_changes/PS_NLM_5G_LAT/nlm_controller/Source/tasks.c.obj
                0x000000001f8027e0                vTaskPlaceOnEventListRestricted
 .text.xTaskRemoveFromEventList
                0x000000001f80281c       0x84 CMakeFiles/la9310.dir/home/deepika/21_sept_macro_changes/PS_NLM_5G_LAT/nlm_controller/Source/tasks.c.obj
                0x000000001f80281c                xTaskRemoveFromEventList
 .text.xTaskRemoveFromUnorderedEventList
                0x000000001f8028a0       0x8c CMakeFiles/la9310.dir/home/deepika/21_sept_macro_changes/PS_NLM_5G_LAT/nlm_controller/Source/tasks.c.obj
                0x000000001f8028a0                xTaskRemoveFromUnorderedEventList
 .text.vTaskSetTimeOutState
                0x000000001f80292c       0x20 CMakeFiles/la9310.dir/home/deepika/21_sept_macro_changes/PS_NLM_5G_LAT/nlm_controller/Source/tasks.c.obj
                0x000000001f80292c                vTaskSetTimeOutState
 .text.xTaskCheckForTimeOut
                0x000000001f80294c       0x74 CMakeFiles/la9310.dir/home/deepika/21_sept_macro_changes/PS_NLM_5G_LAT/nlm_controller/Source/tasks.c.obj
                0x000000001f80294c                xTaskCheckForTimeOut
 .text.vTaskMissedYield
                0x000000001f8029c0        0xc CMakeFiles/la9310.dir/home/deepika/21_sept_macro_changes/PS_NLM_5G_LAT/nlm_controller/Source/tasks.c.obj
                0x000000001f8029c0                vTaskMissedYield
 .text.xTaskGetSchedulerState
                0x000000001f8029cc       0x20 CMakeFiles/la9310.dir/home/deepika/21_sept_macro_changes/PS_NLM_5G_LAT/nlm_controller/Source/tasks.c.obj
                0x000000001f8029cc                xTaskGetSchedulerState
 .text.vTaskPriorityInherit
                0x000000001f8029ec       0x8c CMakeFiles/la9310.dir/home/deepika/21_sept_macro_changes/PS_NLM_5G_LAT/nlm_controller/Source/tasks.c.obj
                0x000000001f8029ec                vTaskPriorityInherit
 .text.xTaskPriorityDisinherit
                0x000000001f802a78       0xa0 CMakeFiles/la9310.dir/home/deepika/21_sept_macro_changes/PS_NLM_5G_LAT/nlm_controller/Source/tasks.c.obj
                0x000000001f802a78                xTaskPriorityDisinherit
 .text.uxTaskResetEventItemValue
                0x000000001f802b18       0x18 CMakeFiles/la9310.dir/home/deepika/21_sept_macro_changes/PS_NLM_5G_LAT/nlm_controller/Source/tasks.c.obj
                0x000000001f802b18                uxTaskResetEventItemValue
 .text.pvTaskIncrementMutexHeldCount
                0x000000001f802b30       0x18 CMakeFiles/la9310.dir/home/deepika/21_sept_macro_changes/PS_NLM_5G_LAT/nlm_controller/Source/tasks.c.obj
                0x000000001f802b30                pvTaskIncrementMutexHeldCount
 .text.prvCheckForValidListAndQueue
                0x000000001f802b48       0x58 CMakeFiles/la9310.dir/home/deepika/21_sept_macro_changes/PS_NLM_5G_LAT/nlm_controller/Source/timers.c.obj
 .text.prvInsertTimerInActiveList
                0x000000001f802ba0       0x3c CMakeFiles/la9310.dir/home/deepika/21_sept_macro_changes/PS_NLM_5G_LAT/nlm_controller/Source/timers.c.obj
 .text.xTimerCreateTimerTask
                0x000000001f802bdc       0x4c CMakeFiles/la9310.dir/home/deepika/21_sept_macro_changes/PS_NLM_5G_LAT/nlm_controller/Source/timers.c.obj
                0x000000001f802bdc                xTimerCreateTimerTask
 .text.xTimerCreate
                0x000000001f802c28       0x48 CMakeFiles/la9310.dir/home/deepika/21_sept_macro_changes/PS_NLM_5G_LAT/nlm_controller/Source/timers.c.obj
                0x000000001f802c28                xTimerCreate
 .text.xTimerGenericCommand
                0x000000001f802c70       0x58 CMakeFiles/la9310.dir/home/deepika/21_sept_macro_changes/PS_NLM_5G_LAT/nlm_controller/Source/timers.c.obj
                0x000000001f802c70                xTimerGenericCommand
 .text.prvSwitchTimerLists
                0x000000001f802cc8       0x7c CMakeFiles/la9310.dir/home/deepika/21_sept_macro_changes/PS_NLM_5G_LAT/nlm_controller/Source/timers.c.obj
 .text.prvTimerTask
                0x000000001f802d44      0x1dc CMakeFiles/la9310.dir/home/deepika/21_sept_macro_changes/PS_NLM_5G_LAT/nlm_controller/Source/timers.c.obj
 .text.xTimerIsTimerActive
                0x000000001f802f20       0x2c CMakeFiles/la9310.dir/home/deepika/21_sept_macro_changes/PS_NLM_5G_LAT/nlm_controller/Source/timers.c.obj
                0x000000001f802f20                xTimerIsTimerActive
 .text.pvTimerGetTimerID
                0x000000001f802f4c       0x26 CMakeFiles/la9310.dir/home/deepika/21_sept_macro_changes/PS_NLM_5G_LAT/nlm_controller/Source/timers.c.obj
                0x000000001f802f4c                pvTimerGetTimerID
 .text.vTimerSetTimerID
                0x000000001f802f72       0x28 CMakeFiles/la9310.dir/home/deepika/21_sept_macro_changes/PS_NLM_5G_LAT/nlm_controller/Source/timers.c.obj
                0x000000001f802f72                vTimerSetTimerID
 *fill*         0x000000001f802f9a        0x2 
 .text.xTimerPendFunctionCallFromISR
                0x000000001f802f9c       0x28 CMakeFiles/la9310.dir/home/deepika/21_sept_macro_changes/PS_NLM_5G_LAT/nlm_controller/Source/timers.c.obj
                0x000000001f802f9c                xTimerPendFunctionCallFromISR
 .text.debug_putc
                0x000000001f802fc4       0x28 CMakeFiles/la9310.dir/drivers/serial/debug_console.c.obj
 .text.prvReceiveDataPolling
                0x000000001f802fec        0x4 CMakeFiles/la9310.dir/drivers/serial/debug_console.c.obj
 .text.prvSendDataPolling
                0x000000001f802ff0        0x4 CMakeFiles/la9310.dir/drivers/serial/debug_console.c.obj
 .text.xDebugConsoleInit
                0x000000001f802ff4       0x2c CMakeFiles/la9310.dir/drivers/serial/debug_console.c.obj
                0x000000001f802ff4                xDebugConsoleInit
 .text.debug_printf
                0x000000001f803020       0x38 CMakeFiles/la9310.dir/drivers/serial/debug_console.c.obj
                0x000000001f803020                debug_printf
 .text.debug_putchar
                0x000000001f803058       0x1c CMakeFiles/la9310.dir/drivers/serial/debug_console.c.obj
                0x000000001f803058                debug_putchar
 .text.debug_getchar
                0x000000001f803074       0x20 CMakeFiles/la9310.dir/drivers/serial/debug_console.c.obj
                0x000000001f803074                debug_getchar
 .text.mknumstr
                0x000000001f803094       0x6a CMakeFiles/la9310.dir/drivers/serial/print_scan.c.obj
 .text.fput_pad.isra.0
                0x000000001f8030fe       0x28 CMakeFiles/la9310.dir/drivers/serial/print_scan.c.obj
 *fill*         0x000000001f803126        0x2 
 .text._doprint
                0x000000001f803128      0x3d0 CMakeFiles/la9310.dir/drivers/serial/print_scan.c.obj
                0x000000001f803128                _doprint
 .text.vSerialInit
                0x000000001f8034f8       0x30 CMakeFiles/la9310.dir/drivers/serial/serial_ns16550.c.obj
                0x000000001f8034f8                vSerialInit
 .text.vSerialWriteBlocking
                0x000000001f803528       0x34 CMakeFiles/la9310.dir/drivers/serial/serial_ns16550.c.obj
                0x000000001f803528                vSerialWriteBlocking
 .text.vSerialReadBlocking
                0x000000001f80355c       0x16 CMakeFiles/la9310.dir/drivers/serial/serial_ns16550.c.obj
                0x000000001f80355c                vSerialReadBlocking
 .text.nmm_putc
                0x000000001f803572       0x18 CMakeFiles/la9310.dir/drivers/serial/nmm_logging.c.obj
 *fill*         0x000000001f80358a        0x2 
 .text.nmm_log_to_mem
                0x000000001f80358c       0x28 CMakeFiles/la9310.dir/drivers/serial/nmm_logging.c.obj
                0x000000001f80358c                nmm_log_to_mem
 .text.iEdmaInit
                0x000000001f8035b4       0x34 CMakeFiles/la9310.dir/drivers/edma/la9310_edma.c.obj
                0x000000001f8035b4                iEdmaInit
 .text.pEdmaAllocChannel
                0x000000001f8035e8       0xa4 CMakeFiles/la9310.dir/drivers/edma/la9310_edma.c.obj
                0x000000001f8035e8                pEdmaAllocChannel
 .text.iEdmaXferReq
                0x000000001f80368c       0xb8 CMakeFiles/la9310.dir/drivers/edma/la9310_edma.c.obj
                0x000000001f80368c                iEdmaXferReq
 .text.vEdmaFreeChannel
                0x000000001f803744       0x60 CMakeFiles/la9310.dir/drivers/edma/la9310_edma.c.obj
                0x000000001f803744                vEdmaFreeChannel
 .text.La9310eDMA_IRQHandler
                0x000000001f8037a4       0xc0 CMakeFiles/la9310.dir/drivers/edma/la9310_edma.c.obj
                0x000000001f8037a4                La9310eDMA_IRQHandler
 .text.vMemlogWrite
                0x000000001f803864       0x38 CMakeFiles/la9310.dir/drivers/misc/mem_log.c.obj
                0x000000001f803864                vMemlogWrite
 .text.La9310WDOG_IRQHandler
                0x000000001f80389c       0x50 CMakeFiles/la9310.dir/drivers/watchdog/la9310_watchdog.c.obj
                0x000000001f80389c                La9310WDOG_IRQHandler
 .text.vSoCEnableUART
                0x000000001f8038ec       0x10 CMakeFiles/la9310.dir/platform/ARM_CM4/soc.c.obj
                0x000000001f8038ec                vSoCEnableUART
 .text.vSocInit
                0x000000001f8038fc        0x4 CMakeFiles/la9310.dir/platform/ARM_CM4/soc.c.obj
                0x000000001f8038fc                vSocInit
 .text.vSocResetHandshake
                0x000000001f803900       0x34 CMakeFiles/la9310.dir/platform/ARM_CM4/soc.c.obj
                0x000000001f803900                vSocResetHandshake
 .text.vBoardEarlyInit
                0x000000001f803934       0x14 CMakeFiles/la9310.dir/platform/boards/la9310/board.c.obj
                0x000000001f803934                vBoardEarlyInit
 .text.vBoardFinalInit
                0x000000001f803948       0x30 CMakeFiles/la9310.dir/platform/boards/la9310/board.c.obj
                0x000000001f803948                vBoardFinalInit
 .text.vAnalyzeFault
                0x000000001f803978      0x230 CMakeFiles/la9310.dir/platform/ARM_CM4/exceptions.c.obj
                0x000000001f803978                vAnalyzeFault
 .text.HardFault_Handler
                0x000000001f803ba8       0x16 CMakeFiles/la9310.dir/platform/ARM_CM4/exceptions.c.obj
                0x000000001f803ba8                HardFault_Handler
 *fill*         0x000000001f803bbe        0x2 
 .text.vEnableExceptions
                0x000000001f803bc0       0x10 CMakeFiles/la9310.dir/platform/ARM_CM4/exceptions.c.obj
                0x000000001f803bc0                vEnableExceptions
 .text.vLa9310_do_handshake
                0x000000001f803bd0       0x6c CMakeFiles/la9310.dir/platform/boards/la9310/hardware_init.c.obj
                0x000000001f803bd0                vLa9310_do_handshake
 .text.vHardwareEarlyInit
                0x000000001f803c3c       0x12 CMakeFiles/la9310.dir/platform/boards/la9310/hardware_init.c.obj
                0x000000001f803c3c                vHardwareEarlyInit
 *fill*         0x000000001f803c4e        0x2 
 .text.v_main_Hif_Init
                0x000000001f803c50       0x30 CMakeFiles/la9310.dir/main.c.obj
                0x000000001f803c50                v_main_Hif_Init
 .text.iLa9310HostPreInit
                0x000000001f803c80       0x1a CMakeFiles/la9310.dir/main.c.obj
                0x000000001f803c80                iLa9310HostPreInit
 *fill*         0x000000001f803c9a        0x2 
 .text.iLa9310HostPostInit
                0x000000001f803c9c       0x28 CMakeFiles/la9310.dir/main.c.obj
                0x000000001f803c9c                iLa9310HostPostInit
 .text.iGpioInitRFIC
                0x000000001f803cc4       0x1e CMakeFiles/la9310.dir/main.c.obj
                0x000000001f803cc4                iGpioInitRFIC
 *fill*         0x000000001f803ce2        0x2 
 .text.vInitMsgUnit
                0x000000001f803ce4       0x14 CMakeFiles/la9310.dir/main.c.obj
                0x000000001f803ce4                vInitMsgUnit
 .text.iPcieBoot
                0x000000001f803cf8      0x218 CMakeFiles/la9310.dir/main.c.obj
                0x000000001f803cf8                iPcieBoot
 .text.iI2cBoot
                0x000000001f803f10       0x28 CMakeFiles/la9310.dir/main.c.obj
                0x000000001f803f10                iI2cBoot
 .text.startup.main
                0x000000001f803f38      0x134 CMakeFiles/la9310.dir/main.c.obj
                0x000000001f803f38                main
 .text.getAviHandle
                0x000000001f80406c        0xc CMakeFiles/la9310.dir/main.c.obj
                0x000000001f80406c                getAviHandle
 .text.sendMboxtoVSPA
                0x000000001f804078       0x40 CMakeFiles/la9310.dir/cmd_ctrl_vspa_intfce.c.obj
                0x000000001f804078                sendMboxtoVSPA
 .text.prvCellFollowimerCallback
                0x000000001f8040b8       0x18 CMakeFiles/la9310.dir/cmd_ctrl_vspa_intfce.c.obj
                0x000000001f8040b8                prvCellFollowimerCallback
 .text.sendCliCommandToVspa
                0x000000001f8040d0      0x21c CMakeFiles/la9310.dir/cmd_ctrl_vspa_intfce.c.obj
                0x000000001f8040d0                sendCliCommandToVspa
 .text.vNMMMbxSend
                0x000000001f8042ec       0x40 CMakeFiles/la9310.dir/nmm_avi.c.obj
                0x000000001f8042ec                vNMMMbxSend
 .text.vNMMMbxReceive
                0x000000001f80432c       0x8c CMakeFiles/la9310.dir/nmm_avi.c.obj
                0x000000001f80432c                vNMMMbxReceive
 .text.vDMACallback
                0x000000001f8043b8        0xc CMakeFiles/la9310.dir/nmm_app.c.obj
                0x000000001f8043b8                vDMACallback
 *fill*         0x000000001f8043c4        0x4 
 .text.dbmScaling
                0x000000001f8043c8       0xac CMakeFiles/la9310.dir/nmm_app.c.obj
 .text.prvCopyVSPAMem
                0x000000001f804474      0x184 CMakeFiles/la9310.dir/nmm_app.c.obj
 .text.prvStartVspaTimer
                0x000000001f8045f8       0x80 CMakeFiles/la9310.dir/nmm_app.c.obj
 .text.prvDoReset
                0x000000001f804678       0x40 CMakeFiles/la9310.dir/nmm_app.c.obj
 .text.nmm_do_hexdump.constprop.12
                0x000000001f8046b8       0x50 CMakeFiles/la9310.dir/nmm_app.c.obj
 .text.prvSendMsgToHost
                0x000000001f804708       0xfc CMakeFiles/la9310.dir/nmm_app.c.obj
 .text.prvDoFillMemCustom
                0x000000001f804804       0x58 CMakeFiles/la9310.dir/nmm_app.c.obj
 .text.prvSendVspaCmd
                0x000000001f80485c       0xe4 CMakeFiles/la9310.dir/nmm_app.c.obj
 .text.prvDoDLDump
                0x000000001f804940       0x74 CMakeFiles/la9310.dir/nmm_app.c.obj
 .text.prvDoStop
                0x000000001f8049b4       0x6c CMakeFiles/la9310.dir/nmm_app.c.obj
 .text.prvDisableIntTest
                0x000000001f804a20       0x50 CMakeFiles/la9310.dir/nmm_app.c.obj
 .text.prvEnableIntTest
                0x000000001f804a70       0x70 CMakeFiles/la9310.dir/nmm_app.c.obj
 .text.prvDoTimeUpdate
                0x000000001f804ae0       0xe0 CMakeFiles/la9310.dir/nmm_app.c.obj
 .text.prvTimerCb
                0x000000001f804bc0       0x1c CMakeFiles/la9310.dir/nmm_app.c.obj
 .text.prvVSPAMemInit
                0x000000001f804bdc       0x58 CMakeFiles/la9310.dir/nmm_app.c.obj
                0x000000001f804bdc                prvVSPAMemInit
 .text.prvDoMemInit
                0x000000001f804c34       0x44 CMakeFiles/la9310.dir/nmm_app.c.obj
 .text.vBBDEVSetup
                0x000000001f804c78       0xa4 CMakeFiles/la9310.dir/nmm_app.c.obj
                0x000000001f804c78                vBBDEVSetup
 .text.prvDoIPCReset
                0x000000001f804d1c       0xec CMakeFiles/la9310.dir/nmm_app.c.obj
 .text.prvCalRadio
                0x000000001f804e08       0x78 CMakeFiles/la9310.dir/nmm_app.c.obj
                0x000000001f804e08                prvCalRadio
 .text.prvSetVCXO
                0x000000001f804e80       0x7c CMakeFiles/la9310.dir/nmm_app.c.obj
                0x000000001f804e80                prvSetVCXO
 .text.prvSetRadio
                0x000000001f804efc      0x1f0 CMakeFiles/la9310.dir/nmm_app.c.obj
 .text.prvDoSIB
                0x000000001f8050ec       0x84 CMakeFiles/la9310.dir/nmm_app.c.obj
 .text.prvDoMIB
                0x000000001f805170       0x88 CMakeFiles/la9310.dir/nmm_app.c.obj
 .text.prvDoCellSearch
                0x000000001f8051f8       0x6c CMakeFiles/la9310.dir/nmm_app.c.obj
 .text.prvDoDecCapture
                0x000000001f805264       0x88 CMakeFiles/la9310.dir/nmm_app.c.obj
 .text.prvDoRxCapture
                0x000000001f8052ec       0x84 CMakeFiles/la9310.dir/nmm_app.c.obj
 .text.prvDoCellFollow
                0x000000001f805370       0xc4 CMakeFiles/la9310.dir/nmm_app.c.obj
 .text.prvParseSsbInfo
                0x000000001f805434       0x34 CMakeFiles/la9310.dir/nmm_app.c.obj
                0x000000001f805434                prvParseSsbInfo
 .text.prvVspaDone
                0x000000001f805468      0x160 CMakeFiles/la9310.dir/nmm_app.c.obj
 .text.prvDoRasterScan
                0x000000001f8055c8       0x98 CMakeFiles/la9310.dir/nmm_app.c.obj
                0x000000001f8055c8                prvDoRasterScan
 .text.prvDoCellFollowCellSearch
                0x000000001f805660      0x178 CMakeFiles/la9310.dir/nmm_app.c.obj
                0x000000001f805660                prvDoCellFollowCellSearch
 .text.prvDoTrackingUpdate
                0x000000001f8057d8      0x27c CMakeFiles/la9310.dir/nmm_app.c.obj
                0x000000001f8057d8                prvDoTrackingUpdate
 .text.vVSPALoop
                0x000000001f805a54      0x190 CMakeFiles/la9310.dir/nmm_app.c.obj
                0x000000001f805a54                vVSPALoop
 .text.vConfigRficOnce
                0x000000001f805be4       0xfc CMakeFiles/la9310.dir/nmm_app.c.obj
                0x000000001f805be4                vConfigRficOnce
 .text.vRxLoop  0x000000001f805ce0      0x1b4 CMakeFiles/la9310.dir/nmm_app.c.obj
                0x000000001f805ce0                vRxLoop
 .text.prvGetRasterScanRsp
                0x000000001f805e94        0xc CMakeFiles/la9310.dir/nmm_app.c.obj
                0x000000001f805e94                prvGetRasterScanRsp
 .text.prvResetRasterScanRsp
                0x000000001f805ea0        0xc CMakeFiles/la9310.dir/nmm_app.c.obj
                0x000000001f805ea0                prvResetRasterScanRsp
 .text.vRaiseMsi
                0x000000001f805eac       0x38 CMakeFiles/la9310.dir/la9310_irq.c.obj
                0x000000001f805eac                vRaiseMsi
 .text.vLa9310IrqMuxIrq
                0x000000001f805ee4       0x88 CMakeFiles/la9310.dir/la9310_irq.c.obj
                0x000000001f805ee4                vLa9310IrqMuxIrq
 .text.La9310MSG_1_IRQHandler
                0x000000001f805f6c       0x34 CMakeFiles/la9310.dir/la9310_irq.c.obj
                0x000000001f805f6c                La9310MSG_1_IRQHandler
 .text.La9310MSG_3_IRQHandler
                0x000000001f805fa0       0x34 CMakeFiles/la9310.dir/la9310_irq.c.obj
                0x000000001f805fa0                La9310MSG_3_IRQHandler
 .text.iLa9310RegisterEvt
                0x000000001f805fd4      0x12c CMakeFiles/la9310.dir/la9310_irq.c.obj
                0x000000001f805fd4                iLa9310RegisterEvt
 .text.iLa9310IRQInit
                0x000000001f806100       0x88 CMakeFiles/la9310.dir/la9310_irq.c.obj
                0x000000001f806100                iLa9310IRQInit
 .text.bbdev_ipc_is_host_initialized
                0x000000001f806188       0x18 CMakeFiles/la9310.dir/drivers/misc/bbdev_ipc.c.obj
                0x000000001f806188                bbdev_ipc_is_host_initialized
 .text.bbdev_ipc_signal_ready
                0x000000001f8061a0       0x14 CMakeFiles/la9310.dir/drivers/misc/bbdev_ipc.c.obj
                0x000000001f8061a0                bbdev_ipc_signal_ready
 .text.bbdev_ipc_get_dev_attr
                0x000000001f8061b4       0x64 CMakeFiles/la9310.dir/drivers/misc/bbdev_ipc.c.obj
                0x000000001f8061b4                bbdev_ipc_get_dev_attr
 .text.bbdev_ipc_get_next_internal_buf
                0x000000001f806218       0x60 CMakeFiles/la9310.dir/drivers/misc/bbdev_ipc.c.obj
                0x000000001f806218                bbdev_ipc_get_next_internal_buf
 .text.bbdev_ipc_enqueue_raw_op
                0x000000001f806278       0x98 CMakeFiles/la9310.dir/drivers/misc/bbdev_ipc.c.obj
                0x000000001f806278                bbdev_ipc_enqueue_raw_op
 .text.bbdev_ipc_dequeue_raw_op
                0x000000001f806310       0x80 CMakeFiles/la9310.dir/drivers/misc/bbdev_ipc.c.obj
                0x000000001f806310                bbdev_ipc_dequeue_raw_op
 .text.bbdev_ipc_consume_raw_op
                0x000000001f806390       0x4c CMakeFiles/la9310.dir/drivers/misc/bbdev_ipc.c.obj
                0x000000001f806390                bbdev_ipc_consume_raw_op
 .text.bbdev_ipc_queue_configure
                0x000000001f8063dc      0x1b4 CMakeFiles/la9310.dir/drivers/misc/bbdev_ipc.c.obj
                0x000000001f8063dc                bbdev_ipc_queue_configure
 .text.bbdev_ipc_init
                0x000000001f806590      0x148 CMakeFiles/la9310.dir/drivers/misc/bbdev_ipc.c.obj
                0x000000001f806590                bbdev_ipc_init
 .text.bbdev_ipc_close
                0x000000001f8066d8       0x18 CMakeFiles/la9310.dir/drivers/misc/bbdev_ipc.c.obj
                0x000000001f8066d8                bbdev_ipc_close
 .text.vLa9310AviEvtMask
                0x000000001f8066f0       0x10 CMakeFiles/la9310.dir/drivers/avi/la9310_avi.c.obj
 .text.vLa9310AviEvtUnmask
                0x000000001f806700       0x10 CMakeFiles/la9310.dir/drivers/avi/la9310_avi.c.obj
 .text.vVSPAMboxInit
                0x000000001f806710       0x30 CMakeFiles/la9310.dir/drivers/avi/la9310_avi.c.obj
                0x000000001f806710                vVSPAMboxInit
 .text.iLa9310AviHostSendMboxToVspa
                0x000000001f806740      0x1a8 CMakeFiles/la9310.dir/drivers/avi/la9310_avi.c.obj
                0x000000001f806740                iLa9310AviHostSendMboxToVspa
 .text.iLa9310AviHostRecvMboxFromVspa
                0x000000001f8068e8      0x12c CMakeFiles/la9310.dir/drivers/avi/la9310_avi.c.obj
                0x000000001f8068e8                iLa9310AviHostRecvMboxFromVspa
 .text.AviHndleMboxInterrupt
                0x000000001f806a14      0x24c CMakeFiles/la9310.dir/drivers/avi/la9310_avi.c.obj
                0x000000001f806a14                AviHndleMboxInterrupt
 .text.La9310VSPA_IRQRelayHandler
                0x000000001f806c60       0xa8 CMakeFiles/la9310.dir/drivers/avi/la9310_avi.c.obj
                0x000000001f806c60                La9310VSPA_IRQRelayHandler
 .text.La9310VSPA_IRQHandler
                0x000000001f806d08        0xc CMakeFiles/la9310.dir/drivers/avi/la9310_avi.c.obj
                0x000000001f806d08                La9310VSPA_IRQHandler
 .text.iLa9310AviHandle
                0x000000001f806d14        0xc CMakeFiles/la9310.dir/drivers/avi/la9310_avi.c.obj
                0x000000001f806d14                iLa9310AviHandle
 .text.iLa9310AviInit
                0x000000001f806d20      0x148 CMakeFiles/la9310.dir/drivers/avi/la9310_avi.c.obj
                0x000000001f806d20                iLa9310AviInit
 .text.iGpioInputBufferEnable
                0x000000001f806e68       0x18 CMakeFiles/la9310.dir/drivers/misc/la9310_gpio.c.obj
                0x000000001f806e68                iGpioInputBufferEnable
 .text.iGpioSetData
                0x000000001f806e80       0x84 CMakeFiles/la9310.dir/drivers/misc/la9310_gpio.c.obj
                0x000000001f806e80                iGpioSetData
 .text.iGpioInit
                0x000000001f806f04       0x80 CMakeFiles/la9310.dir/drivers/misc/la9310_gpio.c.obj
                0x000000001f806f04                iGpioInit
 .text.vGpioSetPinMuxSingle
                0x000000001f806f84       0x20 CMakeFiles/la9310.dir/drivers/misc/la9310_pinmux.c.obj
                0x000000001f806f84                vGpioSetPinMuxSingle
 .text.prvWait_For_Bus_Free
                0x000000001f806fa4       0x8c CMakeFiles/la9310.dir/drivers/i2c/la9310_i2c.c.obj
 .text.prvStop_I2C_Cntrl
                0x000000001f807030       0x50 CMakeFiles/la9310.dir/drivers/i2c/la9310_i2c.c.obj
 .text.prvCheck_Offset
                0x000000001f807080       0xc8 CMakeFiles/la9310.dir/drivers/i2c/la9310_i2c.c.obj
 .text.prvWait_For_Status_Change
                0x000000001f807148       0x64 CMakeFiles/la9310.dir/drivers/i2c/la9310_i2c.c.obj
 .text.prvTransmit_Byte
                0x000000001f8071ac       0x3c CMakeFiles/la9310.dir/drivers/i2c/la9310_i2c.c.obj
 .text.prvInit_Source_Addr
                0x000000001f8071e8      0x330 CMakeFiles/la9310.dir/drivers/i2c/la9310_i2c.c.obj
 .text.iLa9310_I2C_Init
                0x000000001f807518       0xc8 CMakeFiles/la9310.dir/drivers/i2c/la9310_i2c.c.obj
                0x000000001f807518                iLa9310_I2C_Init
 .text.iLa9310_I2C_Read
                0x000000001f8075e0      0x10c CMakeFiles/la9310.dir/drivers/i2c/la9310_i2c.c.obj
                0x000000001f8075e0                iLa9310_I2C_Read
 .text.iLa9310_I2C_Write
                0x000000001f8076ec       0xe4 CMakeFiles/la9310.dir/drivers/i2c/la9310_i2c.c.obj
                0x000000001f8076ec                iLa9310_I2C_Write
 .text.vBusyDelay
                0x000000001f8077d0       0x34 CMakeFiles/la9310.dir/drivers/pcie/la9310_pcie.c.obj
                0x000000001f8077d0                vBusyDelay
 .text.vWaitForPCIeLinkStability
                0x000000001f807804       0x34 CMakeFiles/la9310.dir/drivers/pcie/la9310_pcie.c.obj
                0x000000001f807804                vWaitForPCIeLinkStability
 .text.vPCIEIDOClear
                0x000000001f807838       0x10 CMakeFiles/la9310.dir/drivers/pcie/la9310_pcie.c.obj
                0x000000001f807838                vPCIEIDOClear
 .text.vPCIEInterruptInit
                0x000000001f807848       0x2c CMakeFiles/la9310.dir/drivers/pcie/la9310_pcie.c.obj
                0x000000001f807848                vPCIEInterruptInit
 .text.PCIE_IRQHandler
                0x000000001f807874       0x98 CMakeFiles/la9310.dir/drivers/pcie/la9310_pcie.c.obj
                0x000000001f807874                PCIE_IRQHandler
 .text.lDspiHzToBaud
                0x000000001f80790c       0xb4 CMakeFiles/la9310.dir/drivers/dspi/fsl_dspi.c.obj
                0x000000001f80790c                lDspiHzToBaud
 .text.vDspiClkSet
                0x000000001f8079c0       0x80 CMakeFiles/la9310.dir/drivers/dspi/fsl_dspi.c.obj
                0x000000001f8079c0                vDspiClkSet
 .text.vWaitFifo
                0x000000001f807a40        0xc CMakeFiles/la9310.dir/drivers/dspi/fsl_dspi.c.obj
                0x000000001f807a40                vWaitFifo
 .text.vDspiHalt
                0x000000001f807a4c       0x14 CMakeFiles/la9310.dir/drivers/dspi/fsl_dspi.c.obj
                0x000000001f807a4c                vDspiHalt
 .text.vDspiFslClearFifo
                0x000000001f807a60       0x1c CMakeFiles/la9310.dir/drivers/dspi/fsl_dspi.c.obj
                0x000000001f807a60                vDspiFslClearFifo
 .text.lDspiClaimBus
                0x000000001f807a7c       0xcc CMakeFiles/la9310.dir/drivers/dspi/fsl_dspi.c.obj
                0x000000001f807a7c                lDspiClaimBus
 .text.lDspiPush
                0x000000001f807b48       0x90 CMakeFiles/la9310.dir/drivers/dspi/fsl_dspi.c.obj
                0x000000001f807b48                lDspiPush
 .text.lDspiPop
                0x000000001f807bd8       0x68 CMakeFiles/la9310.dir/drivers/dspi/fsl_dspi.c.obj
                0x000000001f807bd8                lDspiPop
 .text.pxDspiInit
                0x000000001f807c40       0xac CMakeFiles/la9310.dir/drivers/dspi/fsl_dspi.c.obj
                0x000000001f807c40                pxDspiInit
 .text.vPhyTimerReset
                0x000000001f807cec       0x18 CMakeFiles/la9310.dir/drivers/phy_timer/phytimer.c.obj
                0x000000001f807cec                vPhyTimerReset
 .text.vPhyTimerEnable
                0x000000001f807d04       0x28 CMakeFiles/la9310.dir/drivers/phy_timer/phytimer.c.obj
                0x000000001f807d04                vPhyTimerEnable
 .text.ulPhyTimerCapture
                0x000000001f807d2c       0x14 CMakeFiles/la9310.dir/drivers/phy_timer/phytimer.c.obj
                0x000000001f807d2c                ulPhyTimerCapture
 .text.vPhyTimerComparatorDisable
                0x000000001f807d40       0x14 CMakeFiles/la9310.dir/drivers/phy_timer/phytimer.c.obj
                0x000000001f807d40                vPhyTimerComparatorDisable
 .text.vPhyTimerComparatorForce
                0x000000001f807d54       0x18 CMakeFiles/la9310.dir/drivers/phy_timer/phytimer.c.obj
                0x000000001f807d54                vPhyTimerComparatorForce
 .text.vPhyTimerPPSOUTConfigGPSlike
                0x000000001f807d6c       0x40 CMakeFiles/la9310.dir/drivers/phy_timer/phytimer.c.obj
                0x000000001f807d6c                vPhyTimerPPSOUTConfigGPSlike
 .text.vPhyTimerPPSOUTHandlerGPSlike
                0x000000001f807dac       0x58 CMakeFiles/la9310.dir/drivers/phy_timer/phytimer.c.obj
                0x000000001f807dac                vPhyTimerPPSOUTHandlerGPSlike
 .text.vPhyTimerPPSOUTAdjustMinor
                0x000000001f807e04       0x10 CMakeFiles/la9310.dir/drivers/phy_timer/phytimer.c.obj
                0x000000001f807e04                vPhyTimerPPSOUTAdjustMinor
 .text.vPhyTimerPPSOUTAdjustMajor
                0x000000001f807e14       0x28 CMakeFiles/la9310.dir/drivers/phy_timer/phytimer.c.obj
                0x000000001f807e14                vPhyTimerPPSOUTAdjustMajor
 .text.vPhyTimerPPSINHandler
                0x000000001f807e3c       0x28 CMakeFiles/la9310.dir/drivers/phy_timer/phytimer.c.obj
                0x000000001f807e3c                vPhyTimerPPSINHandler
 .text.prvSyncTimingDeviceTrxCommand.part.0
                0x000000001f807e64       0x20 CMakeFiles/la9310.dir/drivers/timesync/sync_timing_device.c.obj
 .text.prvSyncTimingDeviceTrxCommand.constprop.4
                0x000000001f807e84       0x20 CMakeFiles/la9310.dir/drivers/timesync/sync_timing_device.c.obj
 .text.prvSyncTimingDeviceWaitForCTS
                0x000000001f807ea4       0x6c CMakeFiles/la9310.dir/drivers/timesync/sync_timing_device.c.obj
 .text.pxSyncTimingDeviceGetContext
                0x000000001f807f10       0x30 CMakeFiles/la9310.dir/drivers/timesync/sync_timing_device.c.obj
                0x000000001f807f10                pxSyncTimingDeviceGetContext
 .text.xSyncTimingDeviceMemReadDirect
                0x000000001f807f40       0x42 CMakeFiles/la9310.dir/drivers/timesync/sync_timing_device.c.obj
                0x000000001f807f40                xSyncTimingDeviceMemReadDirect
 *fill*         0x000000001f807f82        0x2 
 .text.xSyncTimingDeviceGetChipsetMode
                0x000000001f807f84       0x68 CMakeFiles/la9310.dir/drivers/timesync/sync_timing_device.c.obj
                0x000000001f807f84                xSyncTimingDeviceGetChipsetMode
 .text.xSyncTimingDeviceFWAPIMetadata
                0x000000001f807fec      0x12c CMakeFiles/la9310.dir/drivers/timesync/sync_timing_device.c.obj
                0x000000001f807fec                xSyncTimingDeviceFWAPIMetadata
 .text.xSyncTimingDeviceFWAPIVariableOffsetDco
                0x000000001f808118       0xb4 CMakeFiles/la9310.dir/drivers/timesync/sync_timing_device.c.obj
                0x000000001f808118                xSyncTimingDeviceFWAPIVariableOffsetDco
 .text.xSyncTimingDeviceGetVersionInfo
                0x000000001f8081cc      0x25c CMakeFiles/la9310.dir/drivers/timesync/sync_timing_device.c.obj
                0x000000001f8081cc                xSyncTimingDeviceGetVersionInfo
 .text.pxSyncTimingDeviceInit
                0x000000001f808428       0x30 CMakeFiles/la9310.dir/drivers/timesync/sync_timing_device.c.obj
                0x000000001f808428                pxSyncTimingDeviceInit
 .text.xSyncTimingDeviceFwUpgrade
                0x000000001f808458      0x4d4 CMakeFiles/la9310.dir/drivers/timesync/sync_timing_device.c.obj
                0x000000001f808458                xSyncTimingDeviceFwUpgrade
 .text.vSwCmdTask
                0x000000001f80892c       0x84 CMakeFiles/la9310.dir/sw_cmd_engine/sw_cmd_engine.c.obj
                0x000000001f80892c                vSwCmdTask
 .text.lSwCmdEngineInit
                0x000000001f8089b0       0x84 CMakeFiles/la9310.dir/sw_cmd_engine/sw_cmd_engine.c.obj
                0x000000001f8089b0                lSwCmdEngineInit
 .text.La9310MSG_2_IRQHandler
                0x000000001f808a34       0x50 CMakeFiles/la9310.dir/sw_cmd_engine/sw_cmd_engine.c.obj
                0x000000001f808a34                La9310MSG_2_IRQHandler
 .text.vUDelay  0x000000001f808a84       0x12 CMakeFiles/la9310.dir/utils/delay.c.obj
                0x000000001f808a84                vUDelay
 *fill*         0x000000001f808a96        0x2 
 .text.xLa9310AdcDacPowerUp
                0x000000001f808a98       0xb4 CMakeFiles/la9310.dir/drivers/dcs/la9310_dcs.c.obj
                0x000000001f808a98                xLa9310AdcDacPowerUp
 .text.xLa9310ConfigAdcDacClock
                0x000000001f808b4c       0xcc CMakeFiles/la9310.dir/drivers/dcs/la9310_dcs.c.obj
                0x000000001f808b4c                xLa9310ConfigAdcDacClock
 .text.xLa9310ResetAdcDac
                0x000000001f808c18       0xb4 CMakeFiles/la9310.dir/drivers/dcs/la9310_dcs.c.obj
                0x000000001f808c18                xLa9310ResetAdcDac
 .text.xLa9310AdcDacOpModeCtrl
                0x000000001f808ccc      0x20c CMakeFiles/la9310.dir/drivers/dcs/la9310_dcs.c.obj
                0x000000001f808ccc                xLa9310AdcDacOpModeCtrl
 .text.xLa9310AdcDacSetGateReady
                0x000000001f808ed8       0x7c CMakeFiles/la9310.dir/drivers/dcs/la9310_dcs.c.obj
                0x000000001f808ed8                xLa9310AdcDacSetGateReady
 .text.vDcsInit
                0x000000001f808f54       0x8c CMakeFiles/la9310.dir/drivers/dcs/la9310_dcs.c.obj
                0x000000001f808f54                vDcsInit
 .text.prvHelpCommand
                0x000000001f808fe0       0x30 CMakeFiles/la9310.dir/utils/FreeRTOS-Plus-CLI-Source/FreeRTOS_CLI.c.obj
 .text.FreeRTOS_CLIRegisterCommand
                0x000000001f809010       0x54 CMakeFiles/la9310.dir/utils/FreeRTOS-Plus-CLI-Source/FreeRTOS_CLI.c.obj
                0x000000001f809010                FreeRTOS_CLIRegisterCommand
 .text.FreeRTOS_CLIProcessCommand
                0x000000001f809064       0xcc CMakeFiles/la9310.dir/utils/FreeRTOS-Plus-CLI-Source/FreeRTOS_CLI.c.obj
                0x000000001f809064                FreeRTOS_CLIProcessCommand
 .text.FreeRTOS_CLIGetOutputBuffer
                0x000000001f809130        0x8 CMakeFiles/la9310.dir/utils/FreeRTOS-Plus-CLI-Source/FreeRTOS_CLI.c.obj
                0x000000001f809130                FreeRTOS_CLIGetOutputBuffer
 .text.FreeRTOS_CLIGetParameter
                0x000000001f809138       0x46 CMakeFiles/la9310.dir/utils/FreeRTOS-Plus-CLI-Source/FreeRTOS_CLI.c.obj
                0x000000001f809138                FreeRTOS_CLIGetParameter
 .text.prvCellFollowStopCommand
                0x000000001f80917e       0x2e CMakeFiles/la9310.dir/utils/command_from_shell.c.obj
 .text.prvRasterScanCommand
                0x000000001f8091ac       0x2e CMakeFiles/la9310.dir/utils/command_from_shell.c.obj
 .text.prvSSBScanCommand
                0x000000001f8091da       0x2e CMakeFiles/la9310.dir/utils/command_from_shell.c.obj
 .text.prvCellFollowCommand
                0x000000001f809208       0x4c CMakeFiles/la9310.dir/utils/command_from_shell.c.obj
 .text.prvMDCommand
                0x000000001f809254       0xc8 CMakeFiles/la9310.dir/utils/command_from_shell.c.obj
 .text.prvEchoCommand
                0x000000001f80931c       0x8c CMakeFiles/la9310.dir/utils/command_from_shell.c.obj
 .text.vRegisterSampleCLICommands
                0x000000001f8093a8       0xf4 CMakeFiles/la9310.dir/utils/command_from_shell.c.obj
                0x000000001f8093a8                vRegisterSampleCLICommands
 .text.getCellFollowParams
                0x000000001f80949c       0x14 CMakeFiles/la9310.dir/utils/command_from_shell.c.obj
                0x000000001f80949c                getCellFollowParams
 .text.prvUARTCommandConsoleTask
                0x000000001f8094b0       0xbc CMakeFiles/la9310.dir/utils/UARTCommandConsole.c.obj
 .text.vUARTConsoleStart
                0x000000001f80956c       0x54 CMakeFiles/la9310.dir/utils/UARTCommandConsole.c.obj
                0x000000001f80956c                vUARTConsoleStart
 .text.vRficInitGpio
                0x000000001f8095c0       0x9c CMakeFiles/la9310.dir/drivers/rfic/rfic_init.c.obj
                0x000000001f8095c0                vRficInitGpio
 .text.vRficInitHif
                0x000000001f80965c       0x2c CMakeFiles/la9310.dir/drivers/rfic/rfic_init.c.obj
                0x000000001f80965c                vRficInitHif
 .text.iRficSelectDspiSlave
                0x000000001f809688       0x48 CMakeFiles/la9310.dir/drivers/rfic/rfic_init.c.obj
                0x000000001f809688                iRficSelectDspiSlave
 .text.iRficInit
                0x000000001f8096d0      0x1d8 CMakeFiles/la9310.dir/drivers/rfic/rfic_init.c.obj
                0x000000001f8096d0                iRficInit
 .text.xRficPostLocalSwCmd
                0x000000001f8098a8       0x80 CMakeFiles/la9310.dir/drivers/rfic/rfic_core.c.obj
                0x000000001f8098a8                xRficPostLocalSwCmd
 .text.vRficSwCmdIrq
                0x000000001f809928       0x90 CMakeFiles/la9310.dir/drivers/rfic/rfic_core.c.obj
                0x000000001f809928                vRficSwCmdIrq
 .text.xHandleSwCmd
                0x000000001f8099b8       0xb0 CMakeFiles/la9310.dir/drivers/rfic/rfic_core.c.obj
                0x000000001f8099b8                xHandleSwCmd
 .text.vRficCoreTask
                0x000000001f809a68       0xb8 CMakeFiles/la9310.dir/drivers/rfic/rfic_core.c.obj
                0x000000001f809a68                vRficCoreTask
 .text.vLa9310MbxSend
                0x000000001f809b20       0x4c CMakeFiles/la9310.dir/drivers/rfic/rfic_avi_ctrl.c.obj
                0x000000001f809b20                vLa9310MbxSend
 .text.vLa9310MbxReceive
                0x000000001f809b6c       0x78 CMakeFiles/la9310.dir/drivers/rfic/rfic_avi_ctrl.c.obj
                0x000000001f809b6c                vLa9310MbxReceive
 .text.xRficLibInit
                0x000000001f809be4       0x18 CMakeFiles/la9310.dir/drivers/rfic/rfic_api.c.obj
                0x000000001f809be4                xRficLibInit
 .text.xRficSetBand
                0x000000001f809bfc       0x42 CMakeFiles/la9310.dir/drivers/rfic/rfic_api.c.obj
                0x000000001f809bfc                xRficSetBand
 *fill*         0x000000001f809c3e        0x2 
 .text.xRficAdjustPllFreq
                0x000000001f809c40       0x8c CMakeFiles/la9310.dir/drivers/rfic/rfic_api.c.obj
                0x000000001f809c40                xRficAdjustPllFreq
 .text.xRficFastCal
                0x000000001f809ccc       0x36 CMakeFiles/la9310.dir/drivers/rfic/rfic_api.c.obj
                0x000000001f809ccc                xRficFastCal
 .text.xRficAdrfGainCtrlBand77
                0x000000001f809d02       0x46 CMakeFiles/la9310.dir/drivers/rfic/rfic_api.c.obj
                0x000000001f809d02                xRficAdrfGainCtrlBand77
 .text.RficVgaWriteReg
                0x000000001f809d48       0x70 CMakeFiles/la9310.dir/drivers/rfic/rfic_vga.c.obj
                0x000000001f809d48                RficVgaWriteReg
 .text.RficVgaInit
                0x000000001f809db8       0x34 CMakeFiles/la9310.dir/drivers/rfic/rfic_vga.c.obj
                0x000000001f809db8                RficVgaInit
 .text.RficSynthWriteReg
                0x000000001f809dec       0x70 CMakeFiles/la9310.dir/drivers/rfic/rfic_synth.c.obj
                0x000000001f809dec                RficSynthWriteReg
 .text.RficSynthReadReg
                0x000000001f809e5c       0x88 CMakeFiles/la9310.dir/drivers/rfic/rfic_synth.c.obj
                0x000000001f809e5c                RficSynthReadReg
 *fill*         0x000000001f809ee4        0x4 
 .text.RficSynthAdjustPllFreq
                0x000000001f809ee8      0x2fc CMakeFiles/la9310.dir/drivers/rfic/rfic_synth.c.obj
                0x000000001f809ee8                RficSynthAdjustPllFreq
 .text.RficSynthAdjustPllFastCal
                0x000000001f80a1e4       0x60 CMakeFiles/la9310.dir/drivers/rfic/rfic_synth.c.obj
                0x000000001f80a1e4                RficSynthAdjustPllFastCal
 .text.RficSynthInit
                0x000000001f80a244       0x70 CMakeFiles/la9310.dir/drivers/rfic/rfic_synth.c.obj
                0x000000001f80a244                RficSynthInit
 .text.RficDemodWriteReg
                0x000000001f80a2b4       0xb4 CMakeFiles/la9310.dir/drivers/rfic/rfic_demod.c.obj
                0x000000001f80a2b4                RficDemodWriteReg
 .text.RficDemodReadReg
                0x000000001f80a368       0x80 CMakeFiles/la9310.dir/drivers/rfic/rfic_demod.c.obj
                0x000000001f80a368                RficDemodReadReg
 .text.RficDemodGainCtrl
                0x000000001f80a3e8       0xd0 CMakeFiles/la9310.dir/drivers/rfic/rfic_demod.c.obj
                0x000000001f80a3e8                RficDemodGainCtrl
 .text.RficDemodLoMatch
                0x000000001f80a4b8       0x80 CMakeFiles/la9310.dir/drivers/rfic/rfic_demod.c.obj
                0x000000001f80a4b8                RficDemodLoMatch
 .text.RficDemodInit
                0x000000001f80a538       0x60 CMakeFiles/la9310.dir/drivers/rfic/rfic_demod.c.obj
                0x000000001f80a538                RficDemodInit
 .text.iRficCtrlFemSwitch
                0x000000001f80a598       0x90 CMakeFiles/la9310.dir/drivers/rfic/rfic_cmd.c.obj
                0x000000001f80a598                iRficCtrlFemSwitch
 .text.xRficProcessSetBand
                0x000000001f80a628       0x7c CMakeFiles/la9310.dir/drivers/rfic/rfic_cmd.c.obj
                0x000000001f80a628                xRficProcessSetBand
 .text.xRficProcessAdjustPllFreq
                0x000000001f80a6a4       0x80 CMakeFiles/la9310.dir/drivers/rfic/rfic_cmd.c.obj
                0x000000001f80a6a4                xRficProcessAdjustPllFreq
 .text.xRficProcessCtrlLna
                0x000000001f80a724       0x88 CMakeFiles/la9310.dir/drivers/rfic/rfic_cmd.c.obj
                0x000000001f80a724                xRficProcessCtrlLna
 .text.xRficProcessReadReg
                0x000000001f80a7ac       0xa4 CMakeFiles/la9310.dir/drivers/rfic/rfic_cmd.c.obj
                0x000000001f80a7ac                xRficProcessReadReg
 .text.xRficProcessWriteReg
                0x000000001f80a850       0xa4 CMakeFiles/la9310.dir/drivers/rfic/rfic_cmd.c.obj
                0x000000001f80a850                xRficProcessWriteReg
 .text.vRficProcessIqDump
                0x000000001f80a8f4       0x64 CMakeFiles/la9310.dir/drivers/rfic/rfic_cmd.c.obj
                0x000000001f80a8f4                vRficProcessIqDump
 .text.vRficProcessSingleToneTX
                0x000000001f80a958       0x6c CMakeFiles/la9310.dir/drivers/rfic/rfic_cmd.c.obj
                0x000000001f80a958                vRficProcessSingleToneTX
 .text.vRficProcessLoopback
                0x000000001f80a9c4       0x54 CMakeFiles/la9310.dir/drivers/rfic/rfic_cmd.c.obj
                0x000000001f80a9c4                vRficProcessLoopback
 .text.xRficProcessCtrlDemodGain
                0x000000001f80aa18       0x60 CMakeFiles/la9310.dir/drivers/rfic/rfic_cmd.c.obj
                0x000000001f80aa18                xRficProcessCtrlDemodGain
 .text.xRficProcessCtrlVgaGain
                0x000000001f80aa78       0x34 CMakeFiles/la9310.dir/drivers/rfic/rfic_cmd.c.obj
                0x000000001f80aa78                xRficProcessCtrlVgaGain
 .text.xRficProcessFastCalib
                0x000000001f80aaac        0x4 CMakeFiles/la9310.dir/drivers/rfic/rfic_cmd.c.obj
                0x000000001f80aaac                xRficProcessFastCalib
 .text.prvDacWriteUpdate
                0x000000001f80aab0       0x4c CMakeFiles/la9310.dir/drivers/rfic/rfic_dac.c.obj
                0x000000001f80aab0                prvDacWriteUpdate
 .text.roundf   0x000000001f80aafc       0x4c /home/deepika/Tools_controller/gcc-arm-none-eabi-6-2017-q2-update/bin/../lib/gcc/arm-none-eabi/6.3.1/../../../../arm-none-eabi/lib/thumb/v7e-m/libm.a(lib_a-sf_round.o)
                0x000000001f80aafc                roundf
 .text.atan2    0x000000001f80ab48        0x4 /home/deepika/Tools_controller/gcc-arm-none-eabi-6-2017-q2-update/bin/../lib/gcc/arm-none-eabi/6.3.1/../../../../arm-none-eabi/lib/thumb/v7e-m/libm.a(lib_a-w_atan2.o)
                0x000000001f80ab48                atan2
 *fill*         0x000000001f80ab4c        0x4 
 .text.__ieee754_atan2
                0x000000001f80ab50      0x1d4 /home/deepika/Tools_controller/gcc-arm-none-eabi-6-2017-q2-update/bin/../lib/gcc/arm-none-eabi/6.3.1/../../../../arm-none-eabi/lib/thumb/v7e-m/libm.a(lib_a-e_atan2.o)
                0x000000001f80ab50                __ieee754_atan2
 *fill*         0x000000001f80ad24        0x4 
 .text.atan     0x000000001f80ad28      0x344 /home/deepika/Tools_controller/gcc-arm-none-eabi-6-2017-q2-update/bin/../lib/gcc/arm-none-eabi/6.3.1/../../../../arm-none-eabi/lib/thumb/v7e-m/libm.a(lib_a-s_atan.o)
                0x000000001f80ad28                atan
 .text.fabs     0x000000001f80b06c        0x8 /home/deepika/Tools_controller/gcc-arm-none-eabi-6-2017-q2-update/bin/../lib/gcc/arm-none-eabi/6.3.1/../../../../arm-none-eabi/lib/thumb/v7e-m/libm.a(lib_a-s_fabs.o)
                0x000000001f80b06c                fabs
 .text.__errno  0x000000001f80b074        0xc /home/deepika/Tools_controller/gcc-arm-none-eabi-6-2017-q2-update/bin/../lib/gcc/arm-none-eabi/6.3.1/../../../../arm-none-eabi/lib/thumb/v7e-m/libc_nano.a(lib_a-errno.o)
                0x000000001f80b074                __errno
 .text.exit     0x000000001f80b080       0x28 /home/deepika/Tools_controller/gcc-arm-none-eabi-6-2017-q2-update/bin/../lib/gcc/arm-none-eabi/6.3.1/../../../../arm-none-eabi/lib/thumb/v7e-m/libc_nano.a(lib_a-exit.o)
                0x000000001f80b080                exit
 .text.__libc_init_array
                0x000000001f80b0a8       0x48 /home/deepika/Tools_controller/gcc-arm-none-eabi-6-2017-q2-update/bin/../lib/gcc/arm-none-eabi/6.3.1/../../../../arm-none-eabi/lib/thumb/v7e-m/libc_nano.a(lib_a-init.o)
                0x000000001f80b0a8                __libc_init_array
 .text.memcmp   0x000000001f80b0f0       0x1e /home/deepika/Tools_controller/gcc-arm-none-eabi-6-2017-q2-update/bin/../lib/gcc/arm-none-eabi/6.3.1/../../../../arm-none-eabi/lib/thumb/v7e-m/libc_nano.a(lib_a-memcmp.o)
                0x000000001f80b0f0                memcmp
 .text.memcpy   0x000000001f80b10e       0x16 /home/deepika/Tools_controller/gcc-arm-none-eabi-6-2017-q2-update/bin/../lib/gcc/arm-none-eabi/6.3.1/../../../../arm-none-eabi/lib/thumb/v7e-m/libc_nano.a(lib_a-memcpy-stub.o)
                0x000000001f80b10e                memcpy
 .text.memset   0x000000001f80b124       0x10 /home/deepika/Tools_controller/gcc-arm-none-eabi-6-2017-q2-update/bin/../lib/gcc/arm-none-eabi/6.3.1/../../../../arm-none-eabi/lib/thumb/v7e-m/libc_nano.a(lib_a-memset.o)
                0x000000001f80b124                memset
 .text.sprintf  0x000000001f80b134       0x48 /home/deepika/Tools_controller/gcc-arm-none-eabi-6-2017-q2-update/bin/../lib/gcc/arm-none-eabi/6.3.1/../../../../arm-none-eabi/lib/thumb/v7e-m/libc_nano.a(lib_a-sprintf.o)
                0x000000001f80b134                sprintf
                0x000000001f80b134                siprintf
 .text.strcpy   0x000000001f80b17c       0x10 /home/deepika/Tools_controller/gcc-arm-none-eabi-6-2017-q2-update/bin/../lib/gcc/arm-none-eabi/6.3.1/../../../../arm-none-eabi/lib/thumb/v7e-m/libc_nano.a(lib_a-strcpy.o)
                0x000000001f80b17c                strcpy
 .text.strncat  0x000000001f80b18c       0x28 /home/deepika/Tools_controller/gcc-arm-none-eabi-6-2017-q2-update/bin/../lib/gcc/arm-none-eabi/6.3.1/../../../../arm-none-eabi/lib/thumb/v7e-m/libc_nano.a(lib_a-strncat.o)
                0x000000001f80b18c                strncat
 .text.strncmp  0x000000001f80b1b4       0x24 /home/deepika/Tools_controller/gcc-arm-none-eabi-6-2017-q2-update/bin/../lib/gcc/arm-none-eabi/6.3.1/../../../../arm-none-eabi/lib/thumb/v7e-m/libc_nano.a(lib_a-strncmp.o)
                0x000000001f80b1b4                strncmp
 .text.strncpy  0x000000001f80b1d8       0x2a /home/deepika/Tools_controller/gcc-arm-none-eabi-6-2017-q2-update/bin/../lib/gcc/arm-none-eabi/6.3.1/../../../../arm-none-eabi/lib/thumb/v7e-m/libc_nano.a(lib_a-strncpy.o)
                0x000000001f80b1d8                strncpy
 .text._strtoul_l.isra.0
                0x000000001f80b202       0xfa /home/deepika/Tools_controller/gcc-arm-none-eabi-6-2017-q2-update/bin/../lib/gcc/arm-none-eabi/6.3.1/../../../../arm-none-eabi/lib/thumb/v7e-m/libc_nano.a(lib_a-strtoul.o)
 .text.strtoul  0x000000001f80b2fc       0x2c /home/deepika/Tools_controller/gcc-arm-none-eabi-6-2017-q2-update/bin/../lib/gcc/arm-none-eabi/6.3.1/../../../../arm-none-eabi/lib/thumb/v7e-m/libc_nano.a(lib_a-strtoul.o)
                0x000000001f80b2fc                strtoul
 .text.__locale_ctype_ptr_l
                0x000000001f80b328        0x6 /home/deepika/Tools_controller/gcc-arm-none-eabi-6-2017-q2-update/bin/../lib/gcc/arm-none-eabi/6.3.1/../../../../arm-none-eabi/lib/thumb/v7e-m/libc_nano.a(lib_a-locale.o)
                0x000000001f80b328                __locale_ctype_ptr_l
 .text.__ascii_mbtowc
                0x000000001f80b32e       0x24 /home/deepika/Tools_controller/gcc-arm-none-eabi-6-2017-q2-update/bin/../lib/gcc/arm-none-eabi/6.3.1/../../../../arm-none-eabi/lib/thumb/v7e-m/libc_nano.a(lib_a-mbtowc_r.o)
                0x000000001f80b32e                __ascii_mbtowc
 .text.__ssputs_r
                0x000000001f80b352       0xb6 /home/deepika/Tools_controller/gcc-arm-none-eabi-6-2017-q2-update/bin/../lib/gcc/arm-none-eabi/6.3.1/../../../../arm-none-eabi/lib/thumb/v7e-m/libc_nano.a(lib_a-nano-svfprintf.o)
                0x000000001f80b352                __ssputs_r
 .text._svfprintf_r
                0x000000001f80b408      0x1e8 /home/deepika/Tools_controller/gcc-arm-none-eabi-6-2017-q2-update/bin/../lib/gcc/arm-none-eabi/6.3.1/../../../../arm-none-eabi/lib/thumb/v7e-m/libc_nano.a(lib_a-nano-svfprintf.o)
                0x000000001f80b408                _svfprintf_r
                0x000000001f80b408                _svfiprintf_r
 .text._printf_common
                0x000000001f80b5f0       0xec /home/deepika/Tools_controller/gcc-arm-none-eabi-6-2017-q2-update/bin/../lib/gcc/arm-none-eabi/6.3.1/../../../../arm-none-eabi/lib/thumb/v7e-m/libc_nano.a(lib_a-nano-vfprintf_i.o)
                0x000000001f80b5f0                _printf_common
 .text._printf_i
                0x000000001f80b6dc      0x240 /home/deepika/Tools_controller/gcc-arm-none-eabi-6-2017-q2-update/bin/../lib/gcc/arm-none-eabi/6.3.1/../../../../arm-none-eabi/lib/thumb/v7e-m/libc_nano.a(lib_a-nano-vfprintf_i.o)
                0x000000001f80b6dc                _printf_i
 .text.__ascii_wctomb
                0x000000001f80b91c       0x1a /home/deepika/Tools_controller/gcc-arm-none-eabi-6-2017-q2-update/bin/../lib/gcc/arm-none-eabi/6.3.1/../../../../arm-none-eabi/lib/thumb/v7e-m/libc_nano.a(lib_a-wctomb_r.o)
                0x000000001f80b91c                __ascii_wctomb
 .text.memmove  0x000000001f80b936       0x34 /home/deepika/Tools_controller/gcc-arm-none-eabi-6-2017-q2-update/bin/../lib/gcc/arm-none-eabi/6.3.1/../../../../arm-none-eabi/lib/thumb/v7e-m/libc_nano.a(lib_a-memmove.o)
                0x000000001f80b936                memmove
 *fill*         0x000000001f80b96a        0x2 
 .text._free_r  0x000000001f80b96c       0x9c /home/deepika/Tools_controller/gcc-arm-none-eabi-6-2017-q2-update/bin/../lib/gcc/arm-none-eabi/6.3.1/../../../../arm-none-eabi/lib/thumb/v7e-m/libc_nano.a(lib_a-nano-freer.o)
                0x000000001f80b96c                _free_r
 .text._malloc_r
                0x000000001f80ba08       0xbc /home/deepika/Tools_controller/gcc-arm-none-eabi-6-2017-q2-update/bin/../lib/gcc/arm-none-eabi/6.3.1/../../../../arm-none-eabi/lib/thumb/v7e-m/libc_nano.a(lib_a-nano-mallocr.o)
                0x000000001f80ba08                _malloc_r
 .text._realloc_r
                0x000000001f80bac4       0x4c /home/deepika/Tools_controller/gcc-arm-none-eabi-6-2017-q2-update/bin/../lib/gcc/arm-none-eabi/6.3.1/../../../../arm-none-eabi/lib/thumb/v7e-m/libc_nano.a(lib_a-nano-reallocr.o)
                0x000000001f80bac4                _realloc_r
 .text._sbrk_r  0x000000001f80bb10       0x20 /home/deepika/Tools_controller/gcc-arm-none-eabi-6-2017-q2-update/bin/../lib/gcc/arm-none-eabi/6.3.1/../../../../arm-none-eabi/lib/thumb/v7e-m/libc_nano.a(lib_a-sbrkr.o)
                0x000000001f80bb10                _sbrk_r
 .text.__malloc_lock
                0x000000001f80bb30        0x2 /home/deepika/Tools_controller/gcc-arm-none-eabi-6-2017-q2-update/bin/../lib/gcc/arm-none-eabi/6.3.1/../../../../arm-none-eabi/lib/thumb/v7e-m/libc_nano.a(lib_a-mlock.o)
                0x000000001f80bb30                __malloc_lock
 .text.__malloc_unlock
                0x000000001f80bb32        0x2 /home/deepika/Tools_controller/gcc-arm-none-eabi-6-2017-q2-update/bin/../lib/gcc/arm-none-eabi/6.3.1/../../../../arm-none-eabi/lib/thumb/v7e-m/libc_nano.a(lib_a-mlock.o)
                0x000000001f80bb32                __malloc_unlock
 .text._malloc_usable_size_r
                0x000000001f80bb34       0x12 /home/deepika/Tools_controller/gcc-arm-none-eabi-6-2017-q2-update/bin/../lib/gcc/arm-none-eabi/6.3.1/../../../../arm-none-eabi/lib/thumb/v7e-m/libc_nano.a(lib_a-nano-msizer.o)
                0x000000001f80bb34                _malloc_usable_size_r
 *fill*         0x000000001f80bb46        0x2 
 .text._sbrk    0x000000001f80bb48       0x1c /home/deepika/Tools_controller/gcc-arm-none-eabi-6-2017-q2-update/bin/../lib/gcc/arm-none-eabi/6.3.1/../../../../arm-none-eabi/lib/thumb/v7e-m/libnosys.a(sbrk.o)
                0x000000001f80bb48                _sbrk
 .text._exit    0x000000001f80bb64        0x4 /home/deepika/Tools_controller/gcc-arm-none-eabi-6-2017-q2-update/bin/../lib/gcc/arm-none-eabi/6.3.1/../../../../arm-none-eabi/lib/thumb/v7e-m/libnosys.a(_exit.o)
                0x000000001f80bb64                _exit
 *(.rodata)
 .rodata        0x000000001f80bb68       0x50 CMakeFiles/la9310.dir/drivers/dspi/fsl_dspi.c.obj
 .rodata        0x000000001f80bbb8       0x10 CMakeFiles/la9310.dir/drivers/timesync/sync_timing_device.c.obj
 *(.rodata*)
 .rodata.vTaskStartScheduler.str1.1
                0x000000001f80bbc8        0x5 CMakeFiles/la9310.dir/home/deepika/21_sept_macro_changes/PS_NLM_5G_LAT/nlm_controller/Source/tasks.c.obj
 .rodata.prvCheckForValidListAndQueue.str1.1
                0x000000001f80bbcd        0x5 CMakeFiles/la9310.dir/home/deepika/21_sept_macro_changes/PS_NLM_5G_LAT/nlm_controller/Source/timers.c.obj
 .rodata.xTimerCreateTimerTask.str1.1
                0x000000001f80bbd2        0x8 CMakeFiles/la9310.dir/home/deepika/21_sept_macro_changes/PS_NLM_5G_LAT/nlm_controller/Source/timers.c.obj
 .rodata.__func__.6405
                0x000000001f80bbda       0x12 CMakeFiles/la9310.dir/drivers/edma/la9310_edma.c.obj
 .rodata.pEdmaAllocChannel.str1.1
                0x000000001f80bbec       0x15 CMakeFiles/la9310.dir/drivers/edma/la9310_edma.c.obj
 .rodata.La9310WDOG_IRQHandler.str1.1
                0x000000001f80bc01       0x17 CMakeFiles/la9310.dir/drivers/watchdog/la9310_watchdog.c.obj
 .rodata.__func__.6424
                0x000000001f80bc18       0x16 CMakeFiles/la9310.dir/drivers/watchdog/la9310_watchdog.c.obj
 .rodata.vAnalyzeFault.str1.1
                0x000000001f80bc2e      0x4d7 CMakeFiles/la9310.dir/platform/ARM_CM4/exceptions.c.obj
 .rodata.__func__.6375
                0x000000001f80c105       0x15 CMakeFiles/la9310.dir/platform/boards/la9310/hardware_init.c.obj
 .rodata.vLa9310_do_handshake.str1.1
                0x000000001f80c11a       0xa1 CMakeFiles/la9310.dir/platform/boards/la9310/hardware_init.c.obj
 .rodata.__func__.6861
                0x000000001f80c1bb       0x10 CMakeFiles/la9310.dir/main.c.obj
 .rodata.__func__.6881
                0x000000001f80c1cb       0x12 CMakeFiles/la9310.dir/main.c.obj
 .rodata.__func__.6896
                0x000000001f80c1dd       0x14 CMakeFiles/la9310.dir/main.c.obj
 .rodata.__func__.6914
                0x000000001f80c1f1        0xa CMakeFiles/la9310.dir/main.c.obj
 .rodata.__func__.6944
                0x000000001f80c1fb        0x5 CMakeFiles/la9310.dir/main.c.obj
 .rodata.iI2cBoot.str1.1
                0x000000001f80c200       0x3b CMakeFiles/la9310.dir/main.c.obj
 .rodata.iLa9310HostPostInit.str1.1
                0x000000001f80c23b       0x15 CMakeFiles/la9310.dir/main.c.obj
 .rodata.iPcieBoot.str1.1
                0x000000001f80c250      0x1a1 CMakeFiles/la9310.dir/main.c.obj
 .rodata.main.str1.1
                0x000000001f80c3f1      0x13f CMakeFiles/la9310.dir/main.c.obj
 .rodata.v_main_Hif_Init.str1.1
                0x000000001f80c530       0x1c CMakeFiles/la9310.dir/main.c.obj
 .rodata.__func__.7022
                0x000000001f80c54c       0x15 CMakeFiles/la9310.dir/cmd_ctrl_vspa_intfce.c.obj
 .rodata.sendCliCommandToVspa.str1.1
                0x000000001f80c561       0xd9 CMakeFiles/la9310.dir/cmd_ctrl_vspa_intfce.c.obj
 .rodata.sendMboxtoVSPA.str1.1
                0x000000001f80c63a       0x28 CMakeFiles/la9310.dir/cmd_ctrl_vspa_intfce.c.obj
 .rodata.__func__.6383
                0x000000001f80c662        0xc CMakeFiles/la9310.dir/nmm_avi.c.obj
 .rodata.__func__.6403
                0x000000001f80c66e        0xf CMakeFiles/la9310.dir/nmm_avi.c.obj
 .rodata.vNMMMbxReceive.str1.1
                0x000000001f80c67d       0x29 CMakeFiles/la9310.dir/nmm_avi.c.obj
 .rodata.vNMMMbxSend.str1.1
                0x000000001f80c6a6       0x1b CMakeFiles/la9310.dir/nmm_avi.c.obj
 *fill*         0x000000001f80c6c1        0x3 
 .rodata.CSWTCH.72
                0x000000001f80c6c4       0x1c CMakeFiles/la9310.dir/nmm_app.c.obj
 .rodata.__func__.7503
                0x000000001f80c6e0        0xe CMakeFiles/la9310.dir/nmm_app.c.obj
 .rodata.__func__.7521
                0x000000001f80c6ee        0xf CMakeFiles/la9310.dir/nmm_app.c.obj
 .rodata.__func__.7544
                0x000000001f80c6fd        0xd CMakeFiles/la9310.dir/nmm_app.c.obj
 .rodata.__func__.7555
                0x000000001f80c70a        0xc CMakeFiles/la9310.dir/nmm_app.c.obj
 .rodata.__func__.7573
                0x000000001f80c716        0xb CMakeFiles/la9310.dir/nmm_app.c.obj
 .rodata.__func__.7578
                0x000000001f80c721       0x10 CMakeFiles/la9310.dir/nmm_app.c.obj
 .rodata.__func__.7590
                0x000000001f80c731        0xc CMakeFiles/la9310.dir/nmm_app.c.obj
 .rodata.__func__.7601
                0x000000001f80c73d        0xc CMakeFiles/la9310.dir/nmm_app.c.obj
 .rodata.__func__.7609
                0x000000001f80c749        0xb CMakeFiles/la9310.dir/nmm_app.c.obj
 .rodata.__func__.7619
                0x000000001f80c754        0xc CMakeFiles/la9310.dir/nmm_app.c.obj
 .rodata.__func__.7638
                0x000000001f80c760       0x12 CMakeFiles/la9310.dir/nmm_app.c.obj
 .rodata.__func__.7648
                0x000000001f80c772        0xf CMakeFiles/la9310.dir/nmm_app.c.obj
 .rodata.__func__.7660
                0x000000001f80c781        0xf CMakeFiles/la9310.dir/nmm_app.c.obj
 .rodata.__func__.7681
                0x000000001f80c790       0x10 CMakeFiles/la9310.dir/nmm_app.c.obj
 .rodata.__func__.7765
                0x000000001f80c7a0       0x11 CMakeFiles/la9310.dir/nmm_app.c.obj
 .rodata.__func__.7773
                0x000000001f80c7b1       0x12 CMakeFiles/la9310.dir/nmm_app.c.obj
 .rodata.__func__.7783
                0x000000001f80c7c3       0x10 CMakeFiles/la9310.dir/nmm_app.c.obj
 .rodata.__func__.7793
                0x000000001f80c7d3       0x10 CMakeFiles/la9310.dir/nmm_app.c.obj
 .rodata.__func__.7802
                0x000000001f80c7e3        0xa CMakeFiles/la9310.dir/nmm_app.c.obj
 .rodata.__func__.7812
                0x000000001f80c7ed        0x9 CMakeFiles/la9310.dir/nmm_app.c.obj
 .rodata.__func__.7822
                0x000000001f80c7f6        0x9 CMakeFiles/la9310.dir/nmm_app.c.obj
 .rodata.__func__.7834
                0x000000001f80c7ff       0x10 CMakeFiles/la9310.dir/nmm_app.c.obj
 .rodata.__func__.7844
                0x000000001f80c80f        0xc CMakeFiles/la9310.dir/nmm_app.c.obj
 .rodata.__func__.7851
                0x000000001f80c81b        0xb CMakeFiles/la9310.dir/nmm_app.c.obj
 .rodata.__func__.7860
                0x000000001f80c826        0xe CMakeFiles/la9310.dir/nmm_app.c.obj
 .rodata.__func__.7888
                0x000000001f80c834       0x11 CMakeFiles/la9310.dir/nmm_app.c.obj
 .rodata.__func__.7897
                0x000000001f80c845        0x8 CMakeFiles/la9310.dir/nmm_app.c.obj
 .rodata.__func__.7928
                0x000000001f80c84d        0xa CMakeFiles/la9310.dir/nmm_app.c.obj
 .rodata.__func__.7960
                0x000000001f80c857       0x10 CMakeFiles/la9310.dir/nmm_app.c.obj
 .rodata.nmm_do_hexdump.constprop.12.str1.1
                0x000000001f80c867       0x1d CMakeFiles/la9310.dir/nmm_app.c.obj
                                         0x20 (size before relaxing)
 .rodata.prvCalRadio.str1.1
                0x000000001f80c884       0x4d CMakeFiles/la9310.dir/nmm_app.c.obj
 .rodata.prvCopyVSPAMem.str1.1
                0x000000001f80c8d1       0xd9 CMakeFiles/la9310.dir/nmm_app.c.obj
 .rodata.prvDisableIntTest.str1.1
                0x000000001f80c9aa       0x21 CMakeFiles/la9310.dir/nmm_app.c.obj
 .rodata.prvDoCellFollow.str1.1
                0x000000001f80c9cb       0x47 CMakeFiles/la9310.dir/nmm_app.c.obj
 .rodata.prvDoCellFollowCellSearch.str1.1
                0x000000001f80ca12       0x80 CMakeFiles/la9310.dir/nmm_app.c.obj
 .rodata.prvDoCellSearch.str1.1
                0x000000001f80ca92       0x2c CMakeFiles/la9310.dir/nmm_app.c.obj
 .rodata.prvDoDLDump.str1.1
                0x000000001f80cabe       0x1a CMakeFiles/la9310.dir/nmm_app.c.obj
 .rodata.prvDoDecCapture.str1.1
                0x000000001f80cad8       0x33 CMakeFiles/la9310.dir/nmm_app.c.obj
 .rodata.prvDoFillMemCustom.str1.1
                0x000000001f80cb0b       0x5f CMakeFiles/la9310.dir/nmm_app.c.obj
 .rodata.prvDoIPCReset.str1.1
                0x000000001f80cb6a       0x5f CMakeFiles/la9310.dir/nmm_app.c.obj
 .rodata.prvDoMIB.str1.1
                0x000000001f80cbc9       0x31 CMakeFiles/la9310.dir/nmm_app.c.obj
 .rodata.prvDoMemInit.str1.1
                0x000000001f80cbfa       0x2d CMakeFiles/la9310.dir/nmm_app.c.obj
 .rodata.prvDoReset.str1.1
                0x000000001f80cc27       0x1b CMakeFiles/la9310.dir/nmm_app.c.obj
 .rodata.prvDoSIB.str1.1
                0x000000001f80cc42       0x2d CMakeFiles/la9310.dir/nmm_app.c.obj
 .rodata.prvDoStop.str1.1
                0x000000001f80cc6f       0x18 CMakeFiles/la9310.dir/nmm_app.c.obj
 .rodata.prvDoTimeUpdate.str1.1
                0x000000001f80cc87       0x5d CMakeFiles/la9310.dir/nmm_app.c.obj
 .rodata.prvDoTrackingUpdate.str1.1
                0x000000001f80cce4       0xc2 CMakeFiles/la9310.dir/nmm_app.c.obj
 .rodata.prvEnableIntTest.str1.1
                0x000000001f80cda6       0x39 CMakeFiles/la9310.dir/nmm_app.c.obj
 .rodata.prvSendMsgToHost.str1.1
                0x000000001f80cddf       0x62 CMakeFiles/la9310.dir/nmm_app.c.obj
 .rodata.prvSendVspaCmd.str1.1
                0x000000001f80ce41       0x4b CMakeFiles/la9310.dir/nmm_app.c.obj
 .rodata.prvSetRadio.str1.1
                0x000000001f80ce8c       0xe4 CMakeFiles/la9310.dir/nmm_app.c.obj
 .rodata.prvSetVCXO.str1.1
                0x000000001f80cf70       0x2f CMakeFiles/la9310.dir/nmm_app.c.obj
 .rodata.prvStartVspaTimer.str1.1
                0x000000001f80cf9f       0x25 CMakeFiles/la9310.dir/nmm_app.c.obj
 .rodata.prvVspaDone.str1.1
                0x000000001f80cfc4       0x7d CMakeFiles/la9310.dir/nmm_app.c.obj
                                         0x92 (size before relaxing)
 .rodata.str1.1
                0x000000001f80d041       0x49 CMakeFiles/la9310.dir/nmm_app.c.obj
                                         0x54 (size before relaxing)
 .rodata.vBBDEVSetup.str1.1
                0x000000001f80d08a       0x45 CMakeFiles/la9310.dir/nmm_app.c.obj
 .rodata.vConfigRficOnce.str1.1
                0x000000001f80d0cf       0x90 CMakeFiles/la9310.dir/nmm_app.c.obj
 .rodata.vRxLoop.str1.1
                0x000000001f80d15f      0x106 CMakeFiles/la9310.dir/nmm_app.c.obj
                                        0x120 (size before relaxing)
 .rodata.vVSPALoop.str1.1
                0x000000001f80d265       0xb2 CMakeFiles/la9310.dir/nmm_app.c.obj
 *fill*         0x000000001f80d317        0x1 
 .rodata.xFnArray
                0x000000001f80d318       0x44 CMakeFiles/la9310.dir/nmm_app.c.obj
 .rodata.La9310MSG_3_IRQHandler.str1.1
                0x000000001f80d35c        0xf CMakeFiles/la9310.dir/la9310_irq.c.obj
 .rodata.__func__.6415
                0x000000001f80d36b       0x17 CMakeFiles/la9310.dir/la9310_irq.c.obj
 .rodata.__func__.6445
                0x000000001f80d382       0x14 CMakeFiles/la9310.dir/la9310_irq.c.obj
 .rodata.__func__.6469
                0x000000001f80d396       0x13 CMakeFiles/la9310.dir/la9310_irq.c.obj
 .rodata.__func__.6485
                0x000000001f80d3a9        0xf CMakeFiles/la9310.dir/la9310_irq.c.obj
 .rodata.iLa9310IRQInit.str1.1
                0x000000001f80d3b8       0x7d CMakeFiles/la9310.dir/la9310_irq.c.obj
 .rodata.iLa9310RaiseIrqEvt.str1.1
                0x000000001f80d435       0x50 CMakeFiles/la9310.dir/la9310_irq.c.obj
 .rodata.iLa9310RegisterEvt.str1.1
                0x000000001f80d485      0x111 CMakeFiles/la9310.dir/la9310_irq.c.obj
 .rodata.vRaiseMsi.str1.1
                0x000000001f80d596       0x27 CMakeFiles/la9310.dir/la9310_irq.c.obj
 .rodata.bbdev_ipc_init.str1.1
                0x000000001f80d5bd       0x15 CMakeFiles/la9310.dir/drivers/misc/bbdev_ipc.c.obj
 .rodata.bbdev_ipc_queue_configure.str1.1
                0x000000001f80d5d2       0x4d CMakeFiles/la9310.dir/drivers/misc/bbdev_ipc.c.obj
 .rodata.AviHndleMboxInterrupt.str1.1
                0x000000001f80d61f      0x109 CMakeFiles/la9310.dir/drivers/avi/la9310_avi.c.obj
 .rodata.La9310VSPA_IRQRelayHandler.str1.1
                0x000000001f80d728       0x65 CMakeFiles/la9310.dir/drivers/avi/la9310_avi.c.obj
 .rodata.__func__.6665
                0x000000001f80d78d       0x1d CMakeFiles/la9310.dir/drivers/avi/la9310_avi.c.obj
 .rodata.__func__.6690
                0x000000001f80d7aa       0x1f CMakeFiles/la9310.dir/drivers/avi/la9310_avi.c.obj
 .rodata.__func__.6714
                0x000000001f80d7c9       0x16 CMakeFiles/la9310.dir/drivers/avi/la9310_avi.c.obj
 .rodata.__func__.6747
                0x000000001f80d7df       0x1b CMakeFiles/la9310.dir/drivers/avi/la9310_avi.c.obj
 .rodata.__func__.6781
                0x000000001f80d7fa        0xf CMakeFiles/la9310.dir/drivers/avi/la9310_avi.c.obj
 .rodata.iLa9310AviHostRecvMboxFromVspa.str1.1
                0x000000001f80d809       0x68 CMakeFiles/la9310.dir/drivers/avi/la9310_avi.c.obj
 .rodata.iLa9310AviHostSendMboxToVspa.str1.1
                0x000000001f80d871       0xca CMakeFiles/la9310.dir/drivers/avi/la9310_avi.c.obj
                                         0xdd (size before relaxing)
 .rodata.iLa9310AviInit.str1.1
                0x000000001f80d93b       0x7a CMakeFiles/la9310.dir/drivers/avi/la9310_avi.c.obj
 .rodata.iGpioInit.str1.1
                0x000000001f80d9b5       0x2c CMakeFiles/la9310.dir/drivers/misc/la9310_gpio.c.obj
 .rodata.iGpioSetData.str1.1
                0x000000001f80d9e1       0x59 CMakeFiles/la9310.dir/drivers/misc/la9310_gpio.c.obj
 .rodata.iLa9310_I2C_Init.str1.1
                0x000000001f80da3a       0x66 CMakeFiles/la9310.dir/drivers/i2c/la9310_i2c.c.obj
 .rodata.iLa9310_I2C_Read.str1.1
                0x000000001f80daa0       0x5b CMakeFiles/la9310.dir/drivers/i2c/la9310_i2c.c.obj
 .rodata.iLa9310_I2C_Write.str1.1
                0x000000001f80dafb       0x9c CMakeFiles/la9310.dir/drivers/i2c/la9310_i2c.c.obj
 .rodata.prvCheck_Offset.str1.1
                0x000000001f80db97       0xe5 CMakeFiles/la9310.dir/drivers/i2c/la9310_i2c.c.obj
 .rodata.prvInit_Source_Addr.str1.1
                0x000000001f80dc7c      0x1d4 CMakeFiles/la9310.dir/drivers/i2c/la9310_i2c.c.obj
 .rodata.prvStop_I2C_Cntrl.str1.1
                0x000000001f80de50       0x41 CMakeFiles/la9310.dir/drivers/i2c/la9310_i2c.c.obj
 .rodata.prvTransmit_Byte.str1.1
                0x000000001f80de91       0x15 CMakeFiles/la9310.dir/drivers/i2c/la9310_i2c.c.obj
 .rodata.prvWait_For_Bus_Free.str1.1
                0x000000001f80dea6       0x7a CMakeFiles/la9310.dir/drivers/i2c/la9310_i2c.c.obj
 .rodata.prvWait_For_Status_Change.str1.1
                0x000000001f80df20       0x49 CMakeFiles/la9310.dir/drivers/i2c/la9310_i2c.c.obj
 *fill*         0x000000001f80df69        0x1 
 .rodata.usFsl_I2C_Speed_Map
                0x000000001f80df6a      0x180 CMakeFiles/la9310.dir/drivers/i2c/la9310_i2c.c.obj
                0x000000001f80df6a                usFsl_I2C_Speed_Map
 .rodata.lDspiClaimBus.str1.1
                0x000000001f80e0ea       0x68 CMakeFiles/la9310.dir/drivers/dspi/fsl_dspi.c.obj
 .rodata.lDspiHzToBaud.str1.1
                0x000000001f80e152       0x5d CMakeFiles/la9310.dir/drivers/dspi/fsl_dspi.c.obj
 .rodata.pxDspiInit.str1.1
                0x000000001f80e1af       0x23 CMakeFiles/la9310.dir/drivers/dspi/fsl_dspi.c.obj
 .rodata.vDspiClkSet.str1.1
                0x000000001f80e1d2       0x5b CMakeFiles/la9310.dir/drivers/dspi/fsl_dspi.c.obj
 .rodata.vPhyTimerPPSINHandler.str1.1
                0x000000001f80e22d       0x5b CMakeFiles/la9310.dir/drivers/phy_timer/phytimer.c.obj
                                          0x5 (size before relaxing)
 .rodata.__func__.8530
                0x000000001f80e22d       0x1d CMakeFiles/la9310.dir/drivers/timesync/sync_timing_device.c.obj
 .rodata.__func__.8570
                0x000000001f80e24a       0x1e CMakeFiles/la9310.dir/drivers/timesync/sync_timing_device.c.obj
 .rodata.__func__.8582
                0x000000001f80e268       0x20 CMakeFiles/la9310.dir/drivers/timesync/sync_timing_device.c.obj
 .rodata.__func__.8601
                0x000000001f80e288       0x1f CMakeFiles/la9310.dir/drivers/timesync/sync_timing_device.c.obj
 .rodata.__func__.8630
                0x000000001f80e2a7       0x28 CMakeFiles/la9310.dir/drivers/timesync/sync_timing_device.c.obj
 .rodata.__func__.8647
                0x000000001f80e2cf       0x21 CMakeFiles/la9310.dir/drivers/timesync/sync_timing_device.c.obj
 .rodata.__func__.8668
                0x000000001f80e2f0       0x1e CMakeFiles/la9310.dir/drivers/timesync/sync_timing_device.c.obj
 .rodata.__func__.8768
                0x000000001f80e30e       0x1b CMakeFiles/la9310.dir/drivers/timesync/sync_timing_device.c.obj
 .rodata.prvSyncTimingDeviceWaitForCTS.str1.1
                0x000000001f80e329       0x2c CMakeFiles/la9310.dir/drivers/timesync/sync_timing_device.c.obj
 .rodata.pxSyncTimingDeviceGetContext.str1.1
                0x000000001f80e355       0x13 CMakeFiles/la9310.dir/drivers/timesync/sync_timing_device.c.obj
 .rodata.xSyncTimingDeviceFWAPIMetadata.str1.1
                0x000000001f80e368      0x16e CMakeFiles/la9310.dir/drivers/timesync/sync_timing_device.c.obj
 .rodata.xSyncTimingDeviceFwUpgrade.str1.1
                0x000000001f80e4d6      0x278 CMakeFiles/la9310.dir/drivers/timesync/sync_timing_device.c.obj
 .rodata.xSyncTimingDeviceGetChipsetMode.str1.1
                0x000000001f80e74e       0x2b CMakeFiles/la9310.dir/drivers/timesync/sync_timing_device.c.obj
 .rodata.xSyncTimingDeviceGetVersionInfo.str1.1
                0x000000001f80e779      0x18a CMakeFiles/la9310.dir/drivers/timesync/sync_timing_device.c.obj
                                        0x1b5 (size before relaxing)
 .rodata.xSyncTimingDeviceReset.str1.1
                0x000000001f80e903       0x6d CMakeFiles/la9310.dir/drivers/timesync/sync_timing_device.c.obj
 .rodata.lSwCmdEngineInit.str1.1
                0x000000001f80e970       0x47 CMakeFiles/la9310.dir/sw_cmd_engine/sw_cmd_engine.c.obj
 .rodata.vSwCmdTask.str1.1
                0x000000001f80e9b7       0x3b CMakeFiles/la9310.dir/sw_cmd_engine/sw_cmd_engine.c.obj
 .rodata.__func__.6382
                0x000000001f80e9f2       0x15 CMakeFiles/la9310.dir/drivers/dcs/la9310_dcs.c.obj
 .rodata.__func__.6399
                0x000000001f80ea07       0x19 CMakeFiles/la9310.dir/drivers/dcs/la9310_dcs.c.obj
 .rodata.__func__.6409
                0x000000001f80ea20       0x13 CMakeFiles/la9310.dir/drivers/dcs/la9310_dcs.c.obj
 .rodata.__func__.6429
                0x000000001f80ea33       0x18 CMakeFiles/la9310.dir/drivers/dcs/la9310_dcs.c.obj
 .rodata.__func__.6464
                0x000000001f80ea4b       0x1a CMakeFiles/la9310.dir/drivers/dcs/la9310_dcs.c.obj
 .rodata.__func__.6477
                0x000000001f80ea65        0x9 CMakeFiles/la9310.dir/drivers/dcs/la9310_dcs.c.obj
 .rodata.vDcsInit.str1.1
                0x000000001f80ea6e       0x2e CMakeFiles/la9310.dir/drivers/dcs/la9310_dcs.c.obj
 .rodata.xLa9310AdcDacOpModeCtrl.str1.1
                0x000000001f80ea9c       0x80 CMakeFiles/la9310.dir/drivers/dcs/la9310_dcs.c.obj
 .rodata.xLa9310AdcDacPowerUp.str1.1
                0x000000001f80eb1c       0x36 CMakeFiles/la9310.dir/drivers/dcs/la9310_dcs.c.obj
 .rodata.xLa9310AdcDacSetGateReady.str1.1
                0x000000001f80eb52       0x1f CMakeFiles/la9310.dir/drivers/dcs/la9310_dcs.c.obj
 .rodata.xLa9310ConfigAdcDacClock.str1.1
                0x000000001f80eb71       0x1d CMakeFiles/la9310.dir/drivers/dcs/la9310_dcs.c.obj
 .rodata.FreeRTOS_CLIProcessCommand.str1.1
                0x000000001f80eb8e       0xa8 CMakeFiles/la9310.dir/utils/FreeRTOS-Plus-CLI-Source/FreeRTOS_CLI.c.obj
 .rodata.str1.1
                0x000000001f80ec36       0x35 CMakeFiles/la9310.dir/utils/FreeRTOS-Plus-CLI-Source/FreeRTOS_CLI.c.obj
 *fill*         0x000000001f80ec6b        0x1 
 .rodata.xHelpCommand
                0x000000001f80ec6c       0x10 CMakeFiles/la9310.dir/utils/FreeRTOS-Plus-CLI-Source/FreeRTOS_CLI.c.obj
 .rodata.prvEchoCommand.str1.1
                0x000000001f80ec7c       0x1c CMakeFiles/la9310.dir/utils/command_from_shell.c.obj
                                         0x1f (size before relaxing)
 .rodata.prvMDCommand.str1.1
                0x000000001f80ec98       0x4d CMakeFiles/la9310.dir/utils/command_from_shell.c.obj
 .rodata.str1.1
                0x000000001f80ece5      0x21f CMakeFiles/la9310.dir/utils/command_from_shell.c.obj
 .rodata.vRegisterSampleCLICommands.str1.1
                0x000000001f80ef04       0x60 CMakeFiles/la9310.dir/utils/command_from_shell.c.obj
 .rodata.xCellFollowCommand
                0x000000001f80ef64       0x10 CMakeFiles/la9310.dir/utils/command_from_shell.c.obj
 .rodata.xCellFollowStopCommand
                0x000000001f80ef74       0x10 CMakeFiles/la9310.dir/utils/command_from_shell.c.obj
 .rodata.xEchoCommand
                0x000000001f80ef84       0x10 CMakeFiles/la9310.dir/utils/command_from_shell.c.obj
 .rodata.xMDCommand
                0x000000001f80ef94       0x10 CMakeFiles/la9310.dir/utils/command_from_shell.c.obj
 .rodata.xRasterScanCommand
                0x000000001f80efa4       0x10 CMakeFiles/la9310.dir/utils/command_from_shell.c.obj
 .rodata.xSSBScanCommand
                0x000000001f80efb4       0x10 CMakeFiles/la9310.dir/utils/command_from_shell.c.obj
 .rodata.prvUARTCommandConsoleTask.str1.1
                0x000000001f80efc4       0x89 CMakeFiles/la9310.dir/utils/UARTCommandConsole.c.obj
                                         0x8c (size before relaxing)
 .rodata.vUARTConsoleStart.str1.1
                0x000000001f80f04d       0x40 CMakeFiles/la9310.dir/utils/UARTCommandConsole.c.obj
 *fill*         0x000000001f80f08d        0x3 
 .rodata.RF_GPIO
                0x000000001f80f090       0x38 CMakeFiles/la9310.dir/drivers/rfic/rfic_init.c.obj
 .rodata.__func__.6431
                0x000000001f80f0c8        0xe CMakeFiles/la9310.dir/drivers/rfic/rfic_init.c.obj
 .rodata.__func__.6447
                0x000000001f80f0d6       0x15 CMakeFiles/la9310.dir/drivers/rfic/rfic_init.c.obj
 .rodata.__func__.6456
                0x000000001f80f0eb        0xa CMakeFiles/la9310.dir/drivers/rfic/rfic_init.c.obj
 .rodata.iRficInit.str1.1
                0x000000001f80f0f5      0x16f CMakeFiles/la9310.dir/drivers/rfic/rfic_init.c.obj
 .rodata.iRficSelectDspiSlave.str1.1
                0x000000001f80f264       0x23 CMakeFiles/la9310.dir/drivers/rfic/rfic_init.c.obj
 .rodata.vRficInitGpio.str1.1
                0x000000001f80f287       0x33 CMakeFiles/la9310.dir/drivers/rfic/rfic_init.c.obj
 .rodata.__func__.5154
                0x000000001f80f2ba       0x14 CMakeFiles/la9310.dir/drivers/rfic/rfic_core.c.obj
 .rodata.__func__.5165
                0x000000001f80f2ce        0xe CMakeFiles/la9310.dir/drivers/rfic/rfic_core.c.obj
 .rodata.__func__.5175
                0x000000001f80f2dc        0xd CMakeFiles/la9310.dir/drivers/rfic/rfic_core.c.obj
 .rodata.__func__.5199
                0x000000001f80f2e9        0xe CMakeFiles/la9310.dir/drivers/rfic/rfic_core.c.obj
 .rodata.vRficCoreTask.str1.1
                0x000000001f80f2f7       0x19 CMakeFiles/la9310.dir/drivers/rfic/rfic_core.c.obj
 .rodata.vRficSwCmdIrq.str1.1
                0x000000001f80f310       0x3a CMakeFiles/la9310.dir/drivers/rfic/rfic_core.c.obj
 .rodata.xHandleSwCmd.str1.1
                0x000000001f80f34a       0x10 CMakeFiles/la9310.dir/drivers/rfic/rfic_core.c.obj
 .rodata.xRficPostLocalSwCmd.str1.1
                0x000000001f80f35a       0x41 CMakeFiles/la9310.dir/drivers/rfic/rfic_core.c.obj
 .rodata.vLa9310MbxReceive.str1.1
                0x000000001f80f39b       0x2b CMakeFiles/la9310.dir/drivers/rfic/rfic_avi_ctrl.c.obj
                                         0x3a (size before relaxing)
 .rodata.vLa9310MbxSend.str1.1
                0x000000001f80f3c6       0x39 CMakeFiles/la9310.dir/drivers/rfic/rfic_avi_ctrl.c.obj
 .rodata.RficVgaInit.str1.1
                0x000000001f80f3ff       0x1b CMakeFiles/la9310.dir/drivers/rfic/rfic_vga.c.obj
 .rodata.RficVgaWriteReg.str1.1
                0x000000001f80f41a       0x3a CMakeFiles/la9310.dir/drivers/rfic/rfic_vga.c.obj
 .rodata.__func__.6401
                0x000000001f80f454       0x10 CMakeFiles/la9310.dir/drivers/rfic/rfic_vga.c.obj
 .rodata.__func__.6411
                0x000000001f80f464        0xc CMakeFiles/la9310.dir/drivers/rfic/rfic_vga.c.obj
 .rodata.RficSynthAdjustPllFastCal.str1.1
                0x000000001f80f470       0x15 CMakeFiles/la9310.dir/drivers/rfic/rfic_synth.c.obj
 .rodata.RficSynthInit.str1.1
                0x000000001f80f485       0x21 CMakeFiles/la9310.dir/drivers/rfic/rfic_synth.c.obj
 .rodata.RficSynthReadReg.str1.1
                0x000000001f80f4a6       0x21 CMakeFiles/la9310.dir/drivers/rfic/rfic_synth.c.obj
 .rodata.RficSynthWriteReg.str1.1
                0x000000001f80f4c7       0x3a CMakeFiles/la9310.dir/drivers/rfic/rfic_synth.c.obj
 .rodata.__func__.6396
                0x000000001f80f4c7       0x12 CMakeFiles/la9310.dir/drivers/rfic/rfic_synth.c.obj
 .rodata.__func__.6408
                0x000000001f80f4d9       0x11 CMakeFiles/la9310.dir/drivers/rfic/rfic_synth.c.obj
 .rodata.__func__.6434
                0x000000001f80f4ea       0x1a CMakeFiles/la9310.dir/drivers/rfic/rfic_synth.c.obj
 .rodata.__func__.6446
                0x000000001f80f504        0xe CMakeFiles/la9310.dir/drivers/rfic/rfic_synth.c.obj
 .rodata.RficDemodGainCtrl.str1.1
                0x000000001f80f512       0x8a CMakeFiles/la9310.dir/drivers/rfic/rfic_demod.c.obj
 .rodata.RficDemodInit.str1.1
                0x000000001f80f59c       0x33 CMakeFiles/la9310.dir/drivers/rfic/rfic_demod.c.obj
 .rodata.RficDemodLoMatch.str1.1
                0x000000001f80f5cf       0x1b CMakeFiles/la9310.dir/drivers/rfic/rfic_demod.c.obj
 .rodata.RficDemodWriteReg.str1.1
                0x000000001f80f5ea       0x5b CMakeFiles/la9310.dir/drivers/rfic/rfic_demod.c.obj
 .rodata.__func__.6398
                0x000000001f80f5ea       0x12 CMakeFiles/la9310.dir/drivers/rfic/rfic_demod.c.obj
 .rodata.__func__.6414
                0x000000001f80f5fc       0x11 CMakeFiles/la9310.dir/drivers/rfic/rfic_demod.c.obj
 .rodata.__func__.6426
                0x000000001f80f60d       0x12 CMakeFiles/la9310.dir/drivers/rfic/rfic_demod.c.obj
 .rodata.__func__.6448
                0x000000001f80f61f       0x11 CMakeFiles/la9310.dir/drivers/rfic/rfic_demod.c.obj
 .rodata.__func__.6458
                0x000000001f80f630        0xe CMakeFiles/la9310.dir/drivers/rfic/rfic_demod.c.obj
 .rodata.__func__.6504
                0x000000001f80f63e       0x13 CMakeFiles/la9310.dir/drivers/rfic/rfic_cmd.c.obj
 .rodata.__func__.6515
                0x000000001f80f651       0x14 CMakeFiles/la9310.dir/drivers/rfic/rfic_cmd.c.obj
 .rodata.__func__.6529
                0x000000001f80f665       0x1a CMakeFiles/la9310.dir/drivers/rfic/rfic_cmd.c.obj
 .rodata.__func__.6544
                0x000000001f80f67f       0x14 CMakeFiles/la9310.dir/drivers/rfic/rfic_cmd.c.obj
 .rodata.__func__.6558
                0x000000001f80f693       0x14 CMakeFiles/la9310.dir/drivers/rfic/rfic_cmd.c.obj
 .rodata.__func__.6572
                0x000000001f80f6a7       0x15 CMakeFiles/la9310.dir/drivers/rfic/rfic_cmd.c.obj
 .rodata.__func__.6587
                0x000000001f80f6bc       0x13 CMakeFiles/la9310.dir/drivers/rfic/rfic_cmd.c.obj
 .rodata.__func__.6597
                0x000000001f80f6cf       0x19 CMakeFiles/la9310.dir/drivers/rfic/rfic_cmd.c.obj
 .rodata.__func__.6606
                0x000000001f80f6e8       0x15 CMakeFiles/la9310.dir/drivers/rfic/rfic_cmd.c.obj
 .rodata.__func__.6616
                0x000000001f80f6fd       0x1a CMakeFiles/la9310.dir/drivers/rfic/rfic_cmd.c.obj
 .rodata.iRficCtrlFemSwitch.str1.1
                0x000000001f80f717       0x19 CMakeFiles/la9310.dir/drivers/rfic/rfic_cmd.c.obj
 .rodata.vRficProcessIqDump.str1.1
                0x000000001f80f717       0x1c CMakeFiles/la9310.dir/drivers/rfic/rfic_cmd.c.obj
 .rodata.vRficProcessLoopback.str1.1
                0x000000001f80f733       0x1a CMakeFiles/la9310.dir/drivers/rfic/rfic_cmd.c.obj
 .rodata.vRficProcessSingleToneTX.str1.1
                0x000000001f80f74d       0x2a CMakeFiles/la9310.dir/drivers/rfic/rfic_cmd.c.obj
 .rodata.xRficProcessAdjustPllFreq.str1.1
                0x000000001f80f777        0xf CMakeFiles/la9310.dir/drivers/rfic/rfic_cmd.c.obj
                                         0x2e (size before relaxing)
 .rodata.xRficProcessCtrlDemodGain.str1.1
                0x000000001f80f786       0x4a CMakeFiles/la9310.dir/drivers/rfic/rfic_cmd.c.obj
 .rodata.xRficProcessCtrlLna.str1.1
                0x000000001f80f7d0       0x10 CMakeFiles/la9310.dir/drivers/rfic/rfic_cmd.c.obj
 .rodata.xRficProcessReadReg.str1.1
                0x000000001f80f7e0       0x39 CMakeFiles/la9310.dir/drivers/rfic/rfic_cmd.c.obj
 .rodata.xRficProcessSetBand.str1.1
                0x000000001f80f819       0x44 CMakeFiles/la9310.dir/drivers/rfic/rfic_cmd.c.obj
 .rodata.xRficProcessWriteReg.str1.1
                0x000000001f80f85d       0x43 CMakeFiles/la9310.dir/drivers/rfic/rfic_cmd.c.obj
 .rodata.prvDacWriteUpdate.str1.1
                0x000000001f80f8a0       0x33 CMakeFiles/la9310.dir/drivers/rfic/rfic_dac.c.obj
 *fill*         0x000000001f80f8d3        0x5 
 .rodata.atanhi
                0x000000001f80f8d8       0x20 /home/deepika/Tools_controller/gcc-arm-none-eabi-6-2017-q2-update/bin/../lib/gcc/arm-none-eabi/6.3.1/../../../../arm-none-eabi/lib/thumb/v7e-m/libm.a(lib_a-s_atan.o)
 .rodata.atanlo
                0x000000001f80f8f8       0x20 /home/deepika/Tools_controller/gcc-arm-none-eabi-6-2017-q2-update/bin/../lib/gcc/arm-none-eabi/6.3.1/../../../../arm-none-eabi/lib/thumb/v7e-m/libm.a(lib_a-s_atan.o)
 .rodata._global_impure_ptr
                0x000000001f80f918        0x4 /home/deepika/Tools_controller/gcc-arm-none-eabi-6-2017-q2-update/bin/../lib/gcc/arm-none-eabi/6.3.1/../../../../arm-none-eabi/lib/thumb/v7e-m/libc_nano.a(lib_a-impure.o)
                0x000000001f80f918                _global_impure_ptr
 .rodata._setlocale_r.str1.1
                0x000000001f80f91c        0x8 /home/deepika/Tools_controller/gcc-arm-none-eabi-6-2017-q2-update/bin/../lib/gcc/arm-none-eabi/6.3.1/../../../../arm-none-eabi/lib/thumb/v7e-m/libc_nano.a(lib_a-locale.o)
                                          0x9 (size before relaxing)
 .rodata.str1.1
                0x000000001f80f924        0x2 /home/deepika/Tools_controller/gcc-arm-none-eabi-6-2017-q2-update/bin/../lib/gcc/arm-none-eabi/6.3.1/../../../../arm-none-eabi/lib/thumb/v7e-m/libc_nano.a(lib_a-locale.o)
 .rodata._svfprintf_r.str1.1
                0x000000001f80f926       0x11 /home/deepika/Tools_controller/gcc-arm-none-eabi-6-2017-q2-update/bin/../lib/gcc/arm-none-eabi/6.3.1/../../../../arm-none-eabi/lib/thumb/v7e-m/libc_nano.a(lib_a-nano-svfprintf.o)
 .rodata._printf_i.str1.1
                0x000000001f80f937       0x22 /home/deepika/Tools_controller/gcc-arm-none-eabi-6-2017-q2-update/bin/../lib/gcc/arm-none-eabi/6.3.1/../../../../arm-none-eabi/lib/thumb/v7e-m/libc_nano.a(lib_a-nano-vfprintf_i.o)
 .rodata._ctype_
                0x000000001f80f959      0x101 /home/deepika/Tools_controller/gcc-arm-none-eabi-6-2017-q2-update/bin/../lib/gcc/arm-none-eabi/6.3.1/../../../../arm-none-eabi/lib/thumb/v7e-m/libc_nano.a(lib_a-ctype_.o)
                0x000000001f80f959                _ctype_
 *(.glue_7)
 .glue_7        0x000000001f80fa5a        0x0 linker stubs
 *(.glue_7t)
 .glue_7t       0x000000001f80fa5a        0x0 linker stubs
 *(.eh_frame)
 *fill*         0x000000001f80fa5a        0x2 
 .eh_frame      0x000000001f80fa5c        0x0 /home/deepika/Tools_controller/gcc-arm-none-eabi-6-2017-q2-update/bin/../lib/gcc/arm-none-eabi/6.3.1/thumb/v7e-m/crtbegin.o
 *(.init)
 .init          0x000000001f80fa5c        0x4 /home/deepika/Tools_controller/gcc-arm-none-eabi-6-2017-q2-update/bin/../lib/gcc/arm-none-eabi/6.3.1/thumb/v7e-m/crti.o
                0x000000001f80fa5c                _init
 .init          0x000000001f80fa60        0x8 /home/deepika/Tools_controller/gcc-arm-none-eabi-6-2017-q2-update/bin/../lib/gcc/arm-none-eabi/6.3.1/thumb/v7e-m/crtn.o
 *(.fini)
 .fini          0x000000001f80fa68        0x4 /home/deepika/Tools_controller/gcc-arm-none-eabi-6-2017-q2-update/bin/../lib/gcc/arm-none-eabi/6.3.1/thumb/v7e-m/crti.o
                0x000000001f80fa68                _fini
 .fini          0x000000001f80fa6c        0x8 /home/deepika/Tools_controller/gcc-arm-none-eabi-6-2017-q2-update/bin/../lib/gcc/arm-none-eabi/6.3.1/thumb/v7e-m/crtn.o
                0x000000001f80fa74                . = ALIGN (0x4)

.vfp11_veneer   0x000000001f80fa74        0x0
 .vfp11_veneer  0x000000001f80fa74        0x0 linker stubs

.v4_bx          0x000000001f80fa74        0x0
 .v4_bx         0x000000001f80fa74        0x0 linker stubs

.iplt           0x000000001f80fa74        0x0
 .iplt          0x000000001f80fa74        0x0 /home/deepika/Tools_controller/gcc-arm-none-eabi-6-2017-q2-update/bin/../lib/gcc/arm-none-eabi/6.3.1/thumb/v7e-m/crtbegin.o

.ARM.extab
 *(.ARM.extab* .gnu.linkonce.armextab.*)

.ARM            0x000000001f80fa74        0x8
                0x000000001f80fa74                __exidx_start = .
 *(.ARM.exidx*)
 .ARM.exidx     0x000000001f80fa74        0x8 /home/deepika/Tools_controller/gcc-arm-none-eabi-6-2017-q2-update/bin/../lib/gcc/arm-none-eabi/6.3.1/../../../../arm-none-eabi/lib/thumb/v7e-m/crt0.o
                0x000000001f80fa7c                __exidx_end = .

.rel.dyn        0x000000001f80fa7c        0x0
 .rel.iplt      0x000000001f80fa7c        0x0 /home/deepika/Tools_controller/gcc-arm-none-eabi-6-2017-q2-update/bin/../lib/gcc/arm-none-eabi/6.3.1/thumb/v7e-m/crtbegin.o

.ctors          0x000000001f80fa7c        0x0
                0x000000001f80fa7c                __CTOR_LIST__ = .
 *crtbegin.o(.ctors)
 *crtbegin?.o(.ctors)
 *(EXCLUDE_FILE(*crtend.o *crtend?.o) .ctors)
 *(SORT(.ctors.*))
 *(.ctors)
                0x000000001f80fa7c                __CTOR_END__ = .

.dtors          0x000000001f80fa7c        0x0
                0x000000001f80fa7c                __DTOR_LIST__ = .
 *crtbegin.o(.dtors)
 *crtbegin?.o(.dtors)
 *(EXCLUDE_FILE(*crtend.o *crtend?.o) .dtors)
 *(SORT(.dtors.*))
 *(.dtors)
                0x000000001f80fa7c                __DTOR_END__ = .

.preinit_array  0x000000001f80fa7c        0x0
                0x000000001f80fa7c                PROVIDE (__preinit_array_start, .)
 *(.preinit_array*)
                0x000000001f80fa7c                PROVIDE (__preinit_array_end, .)

.init_array     0x000000001f80fa7c        0x4
                0x000000001f80fa7c                PROVIDE (__init_array_start, .)
 *(SORT(.init_array.*))
 *(.init_array*)
 .init_array    0x000000001f80fa7c        0x4 /home/deepika/Tools_controller/gcc-arm-none-eabi-6-2017-q2-update/bin/../lib/gcc/arm-none-eabi/6.3.1/thumb/v7e-m/crtbegin.o
                0x000000001f80fa80                PROVIDE (__init_array_end, .)

.fini_array     0x000000001f80fa80        0x4
                [!provide]                        PROVIDE (__fini_array_start, .)
 *(SORT(.fini_array.*))
 *(.fini_array*)
 .fini_array    0x000000001f80fa80        0x4 /home/deepika/Tools_controller/gcc-arm-none-eabi-6-2017-q2-update/bin/../lib/gcc/arm-none-eabi/6.3.1/thumb/v7e-m/crtbegin.o
                [!provide]                        PROVIDE (__fini_array_end, .)
                0x000000001f80fa84                __etext = .

.data           0x000000001f811d40      0x2b0
                0x000000001f811d40                . = ALIGN (0x4)
                0x000000001f811d40                __DATA_RAM = .
                0x000000001f811d40                __data_start__ = .
 *(.data)
 *(.data*)
 .data.uxCriticalNesting
                0x000000001f811d40        0x4 CMakeFiles/la9310.dir/home/deepika/21_sept_macro_changes/PS_NLM_5G_LAT/nlm_controller/Source/portable/GCC/ARM_CM4/port.c.obj
 .data.xFreeBytesRemaining
                0x000000001f811d44        0x4 CMakeFiles/la9310.dir/home/deepika/21_sept_macro_changes/PS_NLM_5G_LAT/nlm_controller/Source/portable/MemMang/heap_2.c.obj
 .data.configRficOnce.7877
                0x000000001f811d48        0x1 CMakeFiles/la9310.dir/nmm_app.c.obj
 *fill*         0x000000001f811d49        0x3 
 .data.p_ssb_info_ddr_add
                0x000000001f811d4c        0x4 CMakeFiles/la9310.dir/nmm_app.c.obj
                0x000000001f811d4c                p_ssb_info_ddr_add
 .data.ssb_scan_cellid
                0x000000001f811d50        0x2 CMakeFiles/la9310.dir/nmm_app.c.obj
 .data.display_flag
                0x000000001f811d52        0x1 CMakeFiles/la9310.dir/drivers/phy_timer/phytimer.c.obj
                0x000000001f811d52                display_flag
 *fill*         0x000000001f811d53        0x1 
 .data.regs     0x000000001f811d54        0x4 CMakeFiles/la9310.dir/drivers/phy_timer/phytimer.c.obj
                0x000000001f811d54                regs
 .data.pxLastCommandInList.4516
                0x000000001f811d58        0x4 CMakeFiles/la9310.dir/utils/FreeRTOS-Plus-CLI-Source/FreeRTOS_CLI.c.obj
 .data.xRegisteredCommands
                0x000000001f811d5c        0x8 CMakeFiles/la9310.dir/utils/FreeRTOS-Plus-CLI-Source/FreeRTOS_CLI.c.obj
 .data.RficSynthInitReg_u
                0x000000001f811d64       0xb8 CMakeFiles/la9310.dir/drivers/rfic/rfic_synth.c.obj
                0x000000001f811d64                RficSynthInitReg_u
 .data._impure_ptr
                0x000000001f811e1c        0x4 /home/deepika/Tools_controller/gcc-arm-none-eabi-6-2017-q2-update/bin/../lib/gcc/arm-none-eabi/6.3.1/../../../../arm-none-eabi/lib/thumb/v7e-m/libc_nano.a(lib_a-impure.o)
                0x000000001f811e1c                _impure_ptr
 .data.impure_data
                0x000000001f811e20       0x60 /home/deepika/Tools_controller/gcc-arm-none-eabi-6-2017-q2-update/bin/../lib/gcc/arm-none-eabi/6.3.1/../../../../arm-none-eabi/lib/thumb/v7e-m/libc_nano.a(lib_a-impure.o)
 .data.__global_locale
                0x000000001f811e80      0x16c /home/deepika/Tools_controller/gcc-arm-none-eabi-6-2017-q2-update/bin/../lib/gcc/arm-none-eabi/6.3.1/../../../../arm-none-eabi/lib/thumb/v7e-m/libc_nano.a(lib_a-locale.o)
                0x000000001f811e80                __global_locale
 *(.jcr*)
 .jcr           0x000000001f811fec        0x0 /home/deepika/Tools_controller/gcc-arm-none-eabi-6-2017-q2-update/bin/../lib/gcc/arm-none-eabi/6.3.1/thumb/v7e-m/crtbegin.o
 .jcr           0x000000001f811fec        0x4 /home/deepika/Tools_controller/gcc-arm-none-eabi-6-2017-q2-update/bin/../lib/gcc/arm-none-eabi/6.3.1/thumb/v7e-m/crtend.o
                0x000000001f811ff0                . = ALIGN (0x4)
                0x000000001f811ff0                __data_end__ = .

.igot.plt       0x000000001f811ff0        0x0
 .igot.plt      0x000000001f811ff0        0x0 /home/deepika/Tools_controller/gcc-arm-none-eabi-6-2017-q2-update/bin/../lib/gcc/arm-none-eabi/6.3.1/thumb/v7e-m/crtbegin.o

.bss            0x000000001f811ff0     0x65f8
                0x000000001f811ff0                . = ALIGN (0x4)
                0x000000001f811ff0                __START_BSS = .
                0x000000001f811ff0                __bss_start__ = .
 *(.bss)
 .bss           0x000000001f811ff0       0x1c /home/deepika/Tools_controller/gcc-arm-none-eabi-6-2017-q2-update/bin/../lib/gcc/arm-none-eabi/6.3.1/thumb/v7e-m/crtbegin.o
 *(.bss*)
 .bss.ucMaxSysCallPriority
                0x000000001f81200c        0x1 CMakeFiles/la9310.dir/home/deepika/21_sept_macro_changes/PS_NLM_5G_LAT/nlm_controller/Source/portable/GCC/ARM_CM4/port.c.obj
 *fill*         0x000000001f81200d        0x3 
 .bss.ulMaxPRIGROUPValue
                0x000000001f812010        0x4 CMakeFiles/la9310.dir/home/deepika/21_sept_macro_changes/PS_NLM_5G_LAT/nlm_controller/Source/portable/GCC/ARM_CM4/port.c.obj
 .bss.ucHeap    0x000000001f812014     0x6000 CMakeFiles/la9310.dir/home/deepika/21_sept_macro_changes/PS_NLM_5G_LAT/nlm_controller/Source/portable/MemMang/heap_2.c.obj
 .bss.xEnd      0x000000001f818014        0x8 CMakeFiles/la9310.dir/home/deepika/21_sept_macro_changes/PS_NLM_5G_LAT/nlm_controller/Source/portable/MemMang/heap_2.c.obj
 .bss.xHeapHasBeenInitialised.4721
                0x000000001f81801c        0x4 CMakeFiles/la9310.dir/home/deepika/21_sept_macro_changes/PS_NLM_5G_LAT/nlm_controller/Source/portable/MemMang/heap_2.c.obj
 .bss.xStart    0x000000001f818020        0x8 CMakeFiles/la9310.dir/home/deepika/21_sept_macro_changes/PS_NLM_5G_LAT/nlm_controller/Source/portable/MemMang/heap_2.c.obj
 .bss.xQueueRegistry
                0x000000001f818028       0x40 CMakeFiles/la9310.dir/home/deepika/21_sept_macro_changes/PS_NLM_5G_LAT/nlm_controller/Source/queue.c.obj
                0x000000001f818028                xQueueRegistry
 .bss.pxCurrentTCB
                0x000000001f818068        0x4 CMakeFiles/la9310.dir/home/deepika/21_sept_macro_changes/PS_NLM_5G_LAT/nlm_controller/Source/tasks.c.obj
                0x000000001f818068                pxCurrentTCB
 .bss.pxDelayedTaskList
                0x000000001f81806c        0x4 CMakeFiles/la9310.dir/home/deepika/21_sept_macro_changes/PS_NLM_5G_LAT/nlm_controller/Source/tasks.c.obj
 .bss.pxOverflowDelayedTaskList
                0x000000001f818070        0x4 CMakeFiles/la9310.dir/home/deepika/21_sept_macro_changes/PS_NLM_5G_LAT/nlm_controller/Source/tasks.c.obj
 .bss.pxReadyTasksLists
                0x000000001f818074       0x64 CMakeFiles/la9310.dir/home/deepika/21_sept_macro_changes/PS_NLM_5G_LAT/nlm_controller/Source/tasks.c.obj
 .bss.uxCurrentNumberOfTasks
                0x000000001f8180d8        0x4 CMakeFiles/la9310.dir/home/deepika/21_sept_macro_changes/PS_NLM_5G_LAT/nlm_controller/Source/tasks.c.obj
 .bss.uxPendedTicks
                0x000000001f8180dc        0x4 CMakeFiles/la9310.dir/home/deepika/21_sept_macro_changes/PS_NLM_5G_LAT/nlm_controller/Source/tasks.c.obj
 .bss.uxSchedulerSuspended
                0x000000001f8180e0        0x4 CMakeFiles/la9310.dir/home/deepika/21_sept_macro_changes/PS_NLM_5G_LAT/nlm_controller/Source/tasks.c.obj
 .bss.uxTaskNumber
                0x000000001f8180e4        0x4 CMakeFiles/la9310.dir/home/deepika/21_sept_macro_changes/PS_NLM_5G_LAT/nlm_controller/Source/tasks.c.obj
 .bss.uxTopReadyPriority
                0x000000001f8180e8        0x4 CMakeFiles/la9310.dir/home/deepika/21_sept_macro_changes/PS_NLM_5G_LAT/nlm_controller/Source/tasks.c.obj
 .bss.xDelayedTaskList1
                0x000000001f8180ec       0x14 CMakeFiles/la9310.dir/home/deepika/21_sept_macro_changes/PS_NLM_5G_LAT/nlm_controller/Source/tasks.c.obj
 .bss.xDelayedTaskList2
                0x000000001f818100       0x14 CMakeFiles/la9310.dir/home/deepika/21_sept_macro_changes/PS_NLM_5G_LAT/nlm_controller/Source/tasks.c.obj
 .bss.xIdleTaskHandle
                0x000000001f818114        0x4 CMakeFiles/la9310.dir/home/deepika/21_sept_macro_changes/PS_NLM_5G_LAT/nlm_controller/Source/tasks.c.obj
 .bss.xNextTaskUnblockTime
                0x000000001f818118        0x4 CMakeFiles/la9310.dir/home/deepika/21_sept_macro_changes/PS_NLM_5G_LAT/nlm_controller/Source/tasks.c.obj
 .bss.xNumOfOverflows
                0x000000001f81811c        0x4 CMakeFiles/la9310.dir/home/deepika/21_sept_macro_changes/PS_NLM_5G_LAT/nlm_controller/Source/tasks.c.obj
 .bss.xPendingReadyList
                0x000000001f818120       0x14 CMakeFiles/la9310.dir/home/deepika/21_sept_macro_changes/PS_NLM_5G_LAT/nlm_controller/Source/tasks.c.obj
 .bss.xSchedulerRunning
                0x000000001f818134        0x4 CMakeFiles/la9310.dir/home/deepika/21_sept_macro_changes/PS_NLM_5G_LAT/nlm_controller/Source/tasks.c.obj
 .bss.xSuspendedTaskList
                0x000000001f818138       0x14 CMakeFiles/la9310.dir/home/deepika/21_sept_macro_changes/PS_NLM_5G_LAT/nlm_controller/Source/tasks.c.obj
 .bss.xTickCount
                0x000000001f81814c        0x4 CMakeFiles/la9310.dir/home/deepika/21_sept_macro_changes/PS_NLM_5G_LAT/nlm_controller/Source/tasks.c.obj
 .bss.xYieldPending
                0x000000001f818150        0x4 CMakeFiles/la9310.dir/home/deepika/21_sept_macro_changes/PS_NLM_5G_LAT/nlm_controller/Source/tasks.c.obj
 .bss.pxCurrentTimerList
                0x000000001f818154        0x4 CMakeFiles/la9310.dir/home/deepika/21_sept_macro_changes/PS_NLM_5G_LAT/nlm_controller/Source/timers.c.obj
 .bss.pxOverflowTimerList
                0x000000001f818158        0x4 CMakeFiles/la9310.dir/home/deepika/21_sept_macro_changes/PS_NLM_5G_LAT/nlm_controller/Source/timers.c.obj
 .bss.xActiveTimerList1
                0x000000001f81815c       0x14 CMakeFiles/la9310.dir/home/deepika/21_sept_macro_changes/PS_NLM_5G_LAT/nlm_controller/Source/timers.c.obj
 .bss.xActiveTimerList2
                0x000000001f818170       0x14 CMakeFiles/la9310.dir/home/deepika/21_sept_macro_changes/PS_NLM_5G_LAT/nlm_controller/Source/timers.c.obj
 .bss.xLastTime.5002
                0x000000001f818184        0x4 CMakeFiles/la9310.dir/home/deepika/21_sept_macro_changes/PS_NLM_5G_LAT/nlm_controller/Source/timers.c.obj
 .bss.xTimerQueue
                0x000000001f818188        0x4 CMakeFiles/la9310.dir/home/deepika/21_sept_macro_changes/PS_NLM_5G_LAT/nlm_controller/Source/timers.c.obj
 .bss.xTimerTaskHandle
                0x000000001f81818c        0x4 CMakeFiles/la9310.dir/home/deepika/21_sept_macro_changes/PS_NLM_5G_LAT/nlm_controller/Source/timers.c.obj
 .bss.s_debugConsole
                0x000000001f818190       0x10 CMakeFiles/la9310.dir/drivers/serial/debug_console.c.obj
 .bss.pEdmaGlb  0x000000001f8181a0       0x38 CMakeFiles/la9310.dir/drivers/edma/la9310_edma.c.obj
                0x000000001f8181a0                pEdmaGlb
 .bss.count.6420
                0x000000001f8181d8        0x4 CMakeFiles/la9310.dir/drivers/watchdog/la9310_watchdog.c.obj
 .bss.BootSource
                0x000000001f8181dc        0x4 CMakeFiles/la9310.dir/main.c.obj
                0x000000001f8181dc                BootSource
 .bss.avihndl   0x000000001f8181e0        0x4 CMakeFiles/la9310.dir/main.c.obj
 .bss.pLa9310Info
                0x000000001f8181e4        0x4 CMakeFiles/la9310.dir/main.c.obj
                0x000000001f8181e4                pLa9310Info
 .bss.ulMemLogIndex
                0x000000001f8181e8        0x4 CMakeFiles/la9310.dir/main.c.obj
                0x000000001f8181e8                ulMemLogIndex
 .bss.host_mbox
                0x000000001f8181ec        0x8 CMakeFiles/la9310.dir/cmd_ctrl_vspa_intfce.c.obj
                0x000000001f8181ec                host_mbox
 .bss.raster_scan_detected_ssb
                0x000000001f8181f4        0x2 CMakeFiles/la9310.dir/cmd_ctrl_vspa_intfce.c.obj
                0x000000001f8181f4                raster_scan_detected_ssb
 *fill*         0x000000001f8181f6        0x2 
 .bss.test_mbox
                0x000000001f8181f8        0x8 CMakeFiles/la9310.dir/cmd_ctrl_vspa_intfce.c.obj
                0x000000001f8181f8                test_mbox
 .bss.cell_follow_detected_cell_id
                0x000000001f818200        0x2 CMakeFiles/la9310.dir/nmm_app.c.obj
 .bss.consecutive_missed_ssb_cnt
                0x000000001f818202        0x1 CMakeFiles/la9310.dir/nmm_app.c.obj
 *fill*         0x000000001f818203        0x1 
 .bss.crt_freq  0x000000001f818204        0x4 CMakeFiles/la9310.dir/nmm_app.c.obj
 .bss.dma_done  0x000000001f818208        0x1 CMakeFiles/la9310.dir/nmm_app.c.obj
 *fill*         0x000000001f818209        0x3 
 .bss.gain_set.7616
                0x000000001f81820c        0x4 CMakeFiles/la9310.dir/nmm_app.c.obj
 .bss.iir_filt_info
                0x000000001f818210       0x1c CMakeFiles/la9310.dir/nmm_app.c.obj
 .bss.ipc_up    0x000000001f81822c        0x4 CMakeFiles/la9310.dir/nmm_app.c.obj
 .bss.last_ppb_adjust
                0x000000001f818230        0x4 CMakeFiles/la9310.dir/nmm_app.c.obj
 .bss.phy_curr_time_stamp
                0x000000001f818234        0x4 CMakeFiles/la9310.dir/nmm_app.c.obj
 .bss.phy_last_time_stamp
                0x000000001f818238        0x4 CMakeFiles/la9310.dir/nmm_app.c.obj
 .bss.phy_timer_stamp
                0x000000001f81823c        0x4 CMakeFiles/la9310.dir/nmm_app.c.obj
 .bss.raster_scan_rsp
                0x000000001f818240        0x1 CMakeFiles/la9310.dir/nmm_app.c.obj
 .bss.reset_in_progress
                0x000000001f818241        0x1 CMakeFiles/la9310.dir/nmm_app.c.obj
 *fill*         0x000000001f818242        0x2 
 .bss.rssiOut   0x000000001f818244        0x4 CMakeFiles/la9310.dir/nmm_app.c.obj
 .bss.rssidBm   0x000000001f818248        0x4 CMakeFiles/la9310.dir/nmm_app.c.obj
 .bss.ssb_info  0x000000001f81824c       0x1c CMakeFiles/la9310.dir/nmm_app.c.obj
 .bss.tunefreq  0x000000001f818268        0x4 CMakeFiles/la9310.dir/nmm_app.c.obj
 .bss.uxCellFollowTimer
                0x000000001f81826c        0x4 CMakeFiles/la9310.dir/nmm_app.c.obj
                0x000000001f81826c                uxCellFollowTimer
 .bss.vspa_timer
                0x000000001f818270        0x4 CMakeFiles/la9310.dir/nmm_app.c.obj
 .bss.xCellFollowTimer
                0x000000001f818274        0x4 CMakeFiles/la9310.dir/nmm_app.c.obj
                0x000000001f818274                xCellFollowTimer
 .bss.buf_pool  0x000000001f818278       0x10 CMakeFiles/la9310.dir/drivers/misc/bbdev_ipc.c.obj
                0x000000001f818278                buf_pool
 .bss.dev_attr  0x000000001f818288       0x24 CMakeFiles/la9310.dir/drivers/misc/bbdev_ipc.c.obj
                0x000000001f818288                dev_attr
 .bss.ipc_handle
                0x000000001f8182ac        0x4 CMakeFiles/la9310.dir/drivers/misc/bbdev_ipc.c.obj
                0x000000001f8182ac                ipc_handle
 .bss.ipc_mem_pool
                0x000000001f8182b0       0x28 CMakeFiles/la9310.dir/drivers/misc/bbdev_ipc.c.obj
                0x000000001f8182b0                ipc_mem_pool
 .bss.ipc_mempool_area
                0x000000001f8182d8        0x4 CMakeFiles/la9310.dir/drivers/misc/bbdev_ipc.c.obj
                0x000000001f8182d8                ipc_mempool_area
 .bss.md_priv_queue
                0x000000001f8182dc       0x40 CMakeFiles/la9310.dir/drivers/misc/bbdev_ipc.c.obj
                0x000000001f8182dc                md_priv_queue
 .bss.IntHndlr  0x000000001f81831c        0x4 CMakeFiles/la9310.dir/drivers/avi/la9310_avi.c.obj
                0x000000001f81831c                IntHndlr
 .bss.VspaEvtHdlr
                0x000000001f818320       0x10 CMakeFiles/la9310.dir/drivers/avi/la9310_avi.c.obj
                0x000000001f818320                VspaEvtHdlr
 .bss.change_timer_period
                0x000000001f818330        0x1 CMakeFiles/la9310.dir/drivers/avi/la9310_avi.c.obj
 .bss.mbox_rcvd
                0x000000001f818331        0x1 CMakeFiles/la9310.dir/drivers/avi/la9310_avi.c.obj
                0x000000001f818331                mbox_rcvd
 *fill*         0x000000001f818332        0x2 
 .bss.pAviHndlr
                0x000000001f818334        0x4 CMakeFiles/la9310.dir/drivers/avi/la9310_avi.c.obj
                0x000000001f818334                pAviHndlr
 .bss.ucLDOrHRWasDetected.5986
                0x000000001f818338        0x1 CMakeFiles/la9310.dir/drivers/pcie/la9310_pcie.c.obj
 *fill*         0x000000001f818339        0x3 
 .bss.pxDspiHandle
                0x000000001f81833c        0x4 CMakeFiles/la9310.dir/drivers/dspi/fsl_dspi.c.obj
 .bss.pps_lvl_toggle
                0x000000001f818340        0x4 CMakeFiles/la9310.dir/drivers/phy_timer/phytimer.c.obj
 .bss.ulNextPPSOUT
                0x000000001f818344        0x4 CMakeFiles/la9310.dir/drivers/phy_timer/phytimer.c.obj
 .bss.xSyncTimingDevice
                0x000000001f818348       0x20 CMakeFiles/la9310.dir/drivers/timesync/sync_timing_device.c.obj
                0x000000001f818348                xSyncTimingDevice
 .bss.xSwCmdSemaphore
                0x000000001f818368        0x4 CMakeFiles/la9310.dir/sw_cmd_engine/sw_cmd_engine.c.obj
                0x000000001f818368                xSwCmdSemaphore
 .bss.cOutputBuffer
                0x000000001f81836c      0x1f4 CMakeFiles/la9310.dir/utils/FreeRTOS-Plus-CLI-Source/FreeRTOS_CLI.c.obj
 .bss.pxCommand.4526
                0x000000001f818560        0x4 CMakeFiles/la9310.dir/utils/FreeRTOS-Plus-CLI-Source/FreeRTOS_CLI.c.obj
 .bss.pxCommand.4560
                0x000000001f818564        0x4 CMakeFiles/la9310.dir/utils/FreeRTOS-Plus-CLI-Source/FreeRTOS_CLI.c.obj
 .bss.cell_follow_params
                0x000000001f818568        0x8 CMakeFiles/la9310.dir/utils/command_from_shell.c.obj
                0x000000001f818568                cell_follow_params
 .bss.uxParameterNumber.6707
                0x000000001f818570        0x4 CMakeFiles/la9310.dir/utils/command_from_shell.c.obj
 .bss.cInputString.5957
                0x000000001f818574       0x32 CMakeFiles/la9310.dir/utils/UARTCommandConsole.c.obj
 .bss.cLastInputString.5958
                0x000000001f8185a6       0x32 CMakeFiles/la9310.dir/utils/UARTCommandConsole.c.obj
 .bss.__malloc_free_list
                0x000000001f8185d8        0x4 /home/deepika/Tools_controller/gcc-arm-none-eabi-6-2017-q2-update/bin/../lib/gcc/arm-none-eabi/6.3.1/../../../../arm-none-eabi/lib/thumb/v7e-m/libc_nano.a(lib_a-nano-mallocr.o)
                0x000000001f8185d8                __malloc_free_list
 .bss.__malloc_sbrk_start
                0x000000001f8185dc        0x4 /home/deepika/Tools_controller/gcc-arm-none-eabi-6-2017-q2-update/bin/../lib/gcc/arm-none-eabi/6.3.1/../../../../arm-none-eabi/lib/thumb/v7e-m/libc_nano.a(lib_a-nano-mallocr.o)
                0x000000001f8185dc                __malloc_sbrk_start
 .bss.heap_end.4116
                0x000000001f8185e0        0x4 /home/deepika/Tools_controller/gcc-arm-none-eabi-6-2017-q2-update/bin/../lib/gcc/arm-none-eabi/6.3.1/../../../../arm-none-eabi/lib/thumb/v7e-m/libnosys.a(sbrk.o)
 *(COMMON)
 COMMON         0x000000001f8185e4        0x4 /home/deepika/Tools_controller/gcc-arm-none-eabi-6-2017-q2-update/bin/../lib/gcc/arm-none-eabi/6.3.1/../../../../arm-none-eabi/lib/thumb/v7e-m/libc_nano.a(lib_a-reent.o)
                0x000000001f8185e4                errno
                0x000000001f8185e8                . = ALIGN (0x4)
                0x000000001f8185e8                __bss_end__ = .
                0x000000001f8185e8                __END_BSS = .

.heap           0x000000001f8185e8      0x200
                0x000000001f8185e8                . = ALIGN (0x8)
                0x000000001f8185e8                __end__ = .
                0x000000001f8185e8                PROVIDE (end, .)
                0x000000001f8185e8                __HeapBase = .
                0x000000001f8187e8                . = (. + HEAP_SIZE)
 *fill*         0x000000001f8185e8      0x200 
                0x000000001f8187e8                __HeapLimit = .

.stack          0x000000001f8187e8     0x3000
                0x000000001f8187e8                . = ALIGN (0x8)
                0x000000001f81b7e8                . = (. + STACK_SIZE)
 *fill*         0x000000001f8187e8     0x3000 
                0x000000001f81bd40                __StackTop = (ORIGIN (m_data) + LENGTH (m_data))
                0x000000001f818d40                __StackLimit = (__StackTop - STACK_SIZE)
                0x000000001f81bd40                PROVIDE (__stack, __StackTop)

.hshake_rsvd    0x0000000020000000      0x100
                0x0000000020000100                . = (. + 0x100)
 *fill*         0x0000000020000000      0x100 

.vspa_mem       0x0000000020000100     0xf800
                0x0000000020000100                . = ALIGN (0x100)
                0x0000000020000100                __vspa_domain_start = .
 *(.vspa_tbl)
 .vspa_tbl      0x0000000020000100     0x9800 CMakeFiles/la9310.dir/nmm_app.c.obj
                0x0000000020009900                . = ALIGN (0x100)
 *(.vspa_ovl)
 .vspa_ovl      0x0000000020009900     0x6000 CMakeFiles/la9310.dir/nmm_app.c.obj
                0x000000002000f900                __vspa_domain_end = .

.ARM.attributes
                0x0000000000000000       0x2a
 *(.ARM.attributes)
 .ARM.attributes
                0x0000000000000000       0x1e /home/deepika/Tools_controller/gcc-arm-none-eabi-6-2017-q2-update/bin/../lib/gcc/arm-none-eabi/6.3.1/thumb/v7e-m/crti.o
 .ARM.attributes
                0x000000000000001e       0x2e /home/deepika/Tools_controller/gcc-arm-none-eabi-6-2017-q2-update/bin/../lib/gcc/arm-none-eabi/6.3.1/thumb/v7e-m/crtbegin.o
 .ARM.attributes
                0x000000000000004c       0x1c /home/deepika/Tools_controller/gcc-arm-none-eabi-6-2017-q2-update/bin/../lib/gcc/arm-none-eabi/6.3.1/../../../../arm-none-eabi/lib/thumb/v7e-m/crt0.o
 .ARM.attributes
                0x0000000000000068       0x33 CMakeFiles/la9310.dir/home/deepika/21_sept_macro_changes/PS_NLM_5G_LAT/nlm_controller/Source/portable/GCC/ARM_CM4/port.c.obj
 .ARM.attributes
                0x000000000000009b       0x33 CMakeFiles/la9310.dir/home/deepika/21_sept_macro_changes/PS_NLM_5G_LAT/nlm_controller/Source/portable/MemMang/heap_2.c.obj
 .ARM.attributes
                0x00000000000000ce       0x33 CMakeFiles/la9310.dir/home/deepika/21_sept_macro_changes/PS_NLM_5G_LAT/nlm_controller/Source/event_groups.c.obj
 .ARM.attributes
                0x0000000000000101       0x33 CMakeFiles/la9310.dir/home/deepika/21_sept_macro_changes/PS_NLM_5G_LAT/nlm_controller/Source/list.c.obj
 .ARM.attributes
                0x0000000000000134       0x33 CMakeFiles/la9310.dir/home/deepika/21_sept_macro_changes/PS_NLM_5G_LAT/nlm_controller/Source/queue.c.obj
 .ARM.attributes
                0x0000000000000167       0x33 CMakeFiles/la9310.dir/home/deepika/21_sept_macro_changes/PS_NLM_5G_LAT/nlm_controller/Source/tasks.c.obj
 .ARM.attributes
                0x000000000000019a       0x33 CMakeFiles/la9310.dir/home/deepika/21_sept_macro_changes/PS_NLM_5G_LAT/nlm_controller/Source/timers.c.obj
 .ARM.attributes
                0x00000000000001cd       0x33 CMakeFiles/la9310.dir/drivers/serial/debug_console.c.obj
 .ARM.attributes
                0x0000000000000200       0x33 CMakeFiles/la9310.dir/drivers/serial/print_scan.c.obj
 .ARM.attributes
                0x0000000000000233       0x33 CMakeFiles/la9310.dir/drivers/serial/serial_ns16550.c.obj
 .ARM.attributes
                0x0000000000000266       0x33 CMakeFiles/la9310.dir/drivers/serial/nmm_logging.c.obj
 .ARM.attributes
                0x0000000000000299       0x33 CMakeFiles/la9310.dir/drivers/edma/la9310_edma.c.obj
 .ARM.attributes
                0x00000000000002cc       0x33 CMakeFiles/la9310.dir/drivers/misc/mem_log.c.obj
 .ARM.attributes
                0x00000000000002ff       0x33 CMakeFiles/la9310.dir/drivers/watchdog/la9310_watchdog.c.obj
 .ARM.attributes
                0x0000000000000332       0x33 CMakeFiles/la9310.dir/platform/ARM_CM4/soc.c.obj
 .ARM.attributes
                0x0000000000000365       0x1b CMakeFiles/la9310.dir/platform/ARM_CM4/start.S.obj
 .ARM.attributes
                0x0000000000000380       0x33 CMakeFiles/la9310.dir/platform/boards/la9310/board.c.obj
 .ARM.attributes
                0x00000000000003b3       0x33 CMakeFiles/la9310.dir/platform/ARM_CM4/exceptions.c.obj
 .ARM.attributes
                0x00000000000003e6       0x33 CMakeFiles/la9310.dir/platform/boards/la9310/hardware_init.c.obj
 .ARM.attributes
                0x0000000000000419       0x33 CMakeFiles/la9310.dir/main.c.obj
 .ARM.attributes
                0x000000000000044c       0x33 CMakeFiles/la9310.dir/cmd_ctrl_vspa_intfce.c.obj
 .ARM.attributes
                0x000000000000047f       0x33 CMakeFiles/la9310.dir/nmm_avi.c.obj
 .ARM.attributes
                0x00000000000004b2       0x33 CMakeFiles/la9310.dir/nmm_app.c.obj
 .ARM.attributes
                0x00000000000004e5       0x33 CMakeFiles/la9310.dir/la9310_irq.c.obj
 .ARM.attributes
                0x0000000000000518       0x33 CMakeFiles/la9310.dir/drivers/misc/bbdev_ipc.c.obj
 .ARM.attributes
                0x000000000000054b       0x33 CMakeFiles/la9310.dir/drivers/avi/la9310_avi.c.obj
 .ARM.attributes
                0x000000000000057e       0x33 CMakeFiles/la9310.dir/drivers/misc/la9310_gpio.c.obj
 .ARM.attributes
                0x00000000000005b1       0x33 CMakeFiles/la9310.dir/drivers/misc/la9310_pinmux.c.obj
 .ARM.attributes
                0x00000000000005e4       0x33 CMakeFiles/la9310.dir/drivers/i2c/la9310_i2c.c.obj
 .ARM.attributes
                0x0000000000000617       0x33 CMakeFiles/la9310.dir/drivers/pcie/la9310_pcie.c.obj
 .ARM.attributes
                0x000000000000064a       0x33 CMakeFiles/la9310.dir/drivers/dspi/fsl_dspi.c.obj
 .ARM.attributes
                0x000000000000067d       0x33 CMakeFiles/la9310.dir/drivers/phy_timer/phytimer.c.obj
 .ARM.attributes
                0x00000000000006b0       0x33 CMakeFiles/la9310.dir/drivers/timesync/sync_timing_device.c.obj
 .ARM.attributes
                0x00000000000006e3       0x33 CMakeFiles/la9310.dir/sw_cmd_engine/sw_cmd_engine.c.obj
 .ARM.attributes
                0x0000000000000716       0x33 CMakeFiles/la9310.dir/utils/delay.c.obj
 .ARM.attributes
                0x0000000000000749       0x33 CMakeFiles/la9310.dir/drivers/dcs/la9310_dcs.c.obj
 .ARM.attributes
                0x000000000000077c       0x33 CMakeFiles/la9310.dir/utils/FreeRTOS-Plus-CLI-Source/FreeRTOS_CLI.c.obj
 .ARM.attributes
                0x00000000000007af       0x33 CMakeFiles/la9310.dir/utils/command_from_shell.c.obj
 .ARM.attributes
                0x00000000000007e2       0x33 CMakeFiles/la9310.dir/utils/UARTCommandConsole.c.obj
 .ARM.attributes
                0x0000000000000815       0x33 CMakeFiles/la9310.dir/drivers/rfic/rfic_init.c.obj
 .ARM.attributes
                0x0000000000000848       0x33 CMakeFiles/la9310.dir/drivers/rfic/rfic_core.c.obj
 .ARM.attributes
                0x000000000000087b       0x33 CMakeFiles/la9310.dir/drivers/rfic/rfic_avi_ctrl.c.obj
 .ARM.attributes
                0x00000000000008ae       0x33 CMakeFiles/la9310.dir/drivers/rfic/rfic_api.c.obj
 .ARM.attributes
                0x00000000000008e1       0x33 CMakeFiles/la9310.dir/drivers/rfic/rfic_vga.c.obj
 .ARM.attributes
                0x0000000000000914       0x33 CMakeFiles/la9310.dir/drivers/rfic/rfic_synth.c.obj
 .ARM.attributes
                0x0000000000000947       0x33 CMakeFiles/la9310.dir/drivers/rfic/rfic_demod.c.obj
 .ARM.attributes
                0x000000000000097a       0x33 CMakeFiles/la9310.dir/drivers/rfic/rfic_cmd.c.obj
 .ARM.attributes
                0x00000000000009ad       0x33 CMakeFiles/la9310.dir/drivers/rfic/rfic_dac.c.obj
 .ARM.attributes
                0x00000000000009e0       0x2e /home/deepika/Tools_controller/gcc-arm-none-eabi-6-2017-q2-update/bin/../lib/gcc/arm-none-eabi/6.3.1/../../../../arm-none-eabi/lib/thumb/v7e-m/libm.a(lib_a-sf_round.o)
 .ARM.attributes
                0x0000000000000a0e       0x2e /home/deepika/Tools_controller/gcc-arm-none-eabi-6-2017-q2-update/bin/../lib/gcc/arm-none-eabi/6.3.1/../../../../arm-none-eabi/lib/thumb/v7e-m/libm.a(lib_a-w_atan2.o)
 .ARM.attributes
                0x0000000000000a3c       0x2e /home/deepika/Tools_controller/gcc-arm-none-eabi-6-2017-q2-update/bin/../lib/gcc/arm-none-eabi/6.3.1/../../../../arm-none-eabi/lib/thumb/v7e-m/libm.a(lib_a-e_atan2.o)
 .ARM.attributes
                0x0000000000000a6a       0x2e /home/deepika/Tools_controller/gcc-arm-none-eabi-6-2017-q2-update/bin/../lib/gcc/arm-none-eabi/6.3.1/../../../../arm-none-eabi/lib/thumb/v7e-m/libm.a(lib_a-s_atan.o)
 .ARM.attributes
                0x0000000000000a98       0x2e /home/deepika/Tools_controller/gcc-arm-none-eabi-6-2017-q2-update/bin/../lib/gcc/arm-none-eabi/6.3.1/../../../../arm-none-eabi/lib/thumb/v7e-m/libm.a(lib_a-s_fabs.o)
 .ARM.attributes
                0x0000000000000ac6       0x2e /home/deepika/Tools_controller/gcc-arm-none-eabi-6-2017-q2-update/bin/../lib/gcc/arm-none-eabi/6.3.1/../../../../arm-none-eabi/lib/thumb/v7e-m/libc_nano.a(lib_a-errno.o)
 .ARM.attributes
                0x0000000000000af4       0x2e /home/deepika/Tools_controller/gcc-arm-none-eabi-6-2017-q2-update/bin/../lib/gcc/arm-none-eabi/6.3.1/../../../../arm-none-eabi/lib/thumb/v7e-m/libc_nano.a(lib_a-exit.o)
 .ARM.attributes
                0x0000000000000b22       0x2e /home/deepika/Tools_controller/gcc-arm-none-eabi-6-2017-q2-update/bin/../lib/gcc/arm-none-eabi/6.3.1/../../../../arm-none-eabi/lib/thumb/v7e-m/libc_nano.a(lib_a-impure.o)
 .ARM.attributes
                0x0000000000000b50       0x2e /home/deepika/Tools_controller/gcc-arm-none-eabi-6-2017-q2-update/bin/../lib/gcc/arm-none-eabi/6.3.1/../../../../arm-none-eabi/lib/thumb/v7e-m/libc_nano.a(lib_a-init.o)
 .ARM.attributes
                0x0000000000000b7e       0x2e /home/deepika/Tools_controller/gcc-arm-none-eabi-6-2017-q2-update/bin/../lib/gcc/arm-none-eabi/6.3.1/../../../../arm-none-eabi/lib/thumb/v7e-m/libc_nano.a(lib_a-memcmp.o)
 .ARM.attributes
                0x0000000000000bac       0x2e /home/deepika/Tools_controller/gcc-arm-none-eabi-6-2017-q2-update/bin/../lib/gcc/arm-none-eabi/6.3.1/../../../../arm-none-eabi/lib/thumb/v7e-m/libc_nano.a(lib_a-memcpy-stub.o)
 .ARM.attributes
                0x0000000000000bda       0x2e /home/deepika/Tools_controller/gcc-arm-none-eabi-6-2017-q2-update/bin/../lib/gcc/arm-none-eabi/6.3.1/../../../../arm-none-eabi/lib/thumb/v7e-m/libc_nano.a(lib_a-memset.o)
 .ARM.attributes
                0x0000000000000c08       0x2e /home/deepika/Tools_controller/gcc-arm-none-eabi-6-2017-q2-update/bin/../lib/gcc/arm-none-eabi/6.3.1/../../../../arm-none-eabi/lib/thumb/v7e-m/libc_nano.a(lib_a-sprintf.o)
 .ARM.attributes
                0x0000000000000c36       0x2e /home/deepika/Tools_controller/gcc-arm-none-eabi-6-2017-q2-update/bin/../lib/gcc/arm-none-eabi/6.3.1/../../../../arm-none-eabi/lib/thumb/v7e-m/libc_nano.a(lib_a-strcpy.o)
 .ARM.attributes
                0x0000000000000c64       0x17 /home/deepika/Tools_controller/gcc-arm-none-eabi-6-2017-q2-update/bin/../lib/gcc/arm-none-eabi/6.3.1/../../../../arm-none-eabi/lib/thumb/v7e-m/libc_nano.a(lib_a-strlen.o)
 .ARM.attributes
                0x0000000000000c7b       0x2e /home/deepika/Tools_controller/gcc-arm-none-eabi-6-2017-q2-update/bin/../lib/gcc/arm-none-eabi/6.3.1/../../../../arm-none-eabi/lib/thumb/v7e-m/libc_nano.a(lib_a-strncat.o)
 .ARM.attributes
                0x0000000000000ca9       0x2e /home/deepika/Tools_controller/gcc-arm-none-eabi-6-2017-q2-update/bin/../lib/gcc/arm-none-eabi/6.3.1/../../../../arm-none-eabi/lib/thumb/v7e-m/libc_nano.a(lib_a-strncmp.o)
 .ARM.attributes
                0x0000000000000cd7       0x2e /home/deepika/Tools_controller/gcc-arm-none-eabi-6-2017-q2-update/bin/../lib/gcc/arm-none-eabi/6.3.1/../../../../arm-none-eabi/lib/thumb/v7e-m/libc_nano.a(lib_a-strncpy.o)
 .ARM.attributes
                0x0000000000000d05       0x2e /home/deepika/Tools_controller/gcc-arm-none-eabi-6-2017-q2-update/bin/../lib/gcc/arm-none-eabi/6.3.1/../../../../arm-none-eabi/lib/thumb/v7e-m/libc_nano.a(lib_a-strtoul.o)
 .ARM.attributes
                0x0000000000000d33       0x2e /home/deepika/Tools_controller/gcc-arm-none-eabi-6-2017-q2-update/bin/../lib/gcc/arm-none-eabi/6.3.1/../../../../arm-none-eabi/lib/thumb/v7e-m/libc_nano.a(lib_a-locale.o)
 .ARM.attributes
                0x0000000000000d61       0x2e /home/deepika/Tools_controller/gcc-arm-none-eabi-6-2017-q2-update/bin/../lib/gcc/arm-none-eabi/6.3.1/../../../../arm-none-eabi/lib/thumb/v7e-m/libc_nano.a(lib_a-mbtowc_r.o)
 .ARM.attributes
                0x0000000000000d8f       0x2e /home/deepika/Tools_controller/gcc-arm-none-eabi-6-2017-q2-update/bin/../lib/gcc/arm-none-eabi/6.3.1/../../../../arm-none-eabi/lib/thumb/v7e-m/libc_nano.a(lib_a-nano-svfprintf.o)
 .ARM.attributes
                0x0000000000000dbd       0x2e /home/deepika/Tools_controller/gcc-arm-none-eabi-6-2017-q2-update/bin/../lib/gcc/arm-none-eabi/6.3.1/../../../../arm-none-eabi/lib/thumb/v7e-m/libc_nano.a(lib_a-nano-vfprintf_i.o)
 .ARM.attributes
                0x0000000000000deb       0x2e /home/deepika/Tools_controller/gcc-arm-none-eabi-6-2017-q2-update/bin/../lib/gcc/arm-none-eabi/6.3.1/../../../../arm-none-eabi/lib/thumb/v7e-m/libc_nano.a(lib_a-wctomb_r.o)
 .ARM.attributes
                0x0000000000000e19       0x2e /home/deepika/Tools_controller/gcc-arm-none-eabi-6-2017-q2-update/bin/../lib/gcc/arm-none-eabi/6.3.1/../../../../arm-none-eabi/lib/thumb/v7e-m/libc_nano.a(lib_a-ctype_.o)
 .ARM.attributes
                0x0000000000000e47       0x1c /home/deepika/Tools_controller/gcc-arm-none-eabi-6-2017-q2-update/bin/../lib/gcc/arm-none-eabi/6.3.1/../../../../arm-none-eabi/lib/thumb/v7e-m/libc_nano.a(lib_a-memchr.o)
 .ARM.attributes
                0x0000000000000e63       0x2e /home/deepika/Tools_controller/gcc-arm-none-eabi-6-2017-q2-update/bin/../lib/gcc/arm-none-eabi/6.3.1/../../../../arm-none-eabi/lib/thumb/v7e-m/libc_nano.a(lib_a-memmove.o)
 .ARM.attributes
                0x0000000000000e91       0x2e /home/deepika/Tools_controller/gcc-arm-none-eabi-6-2017-q2-update/bin/../lib/gcc/arm-none-eabi/6.3.1/../../../../arm-none-eabi/lib/thumb/v7e-m/libc_nano.a(lib_a-nano-freer.o)
 .ARM.attributes
                0x0000000000000ebf       0x2e /home/deepika/Tools_controller/gcc-arm-none-eabi-6-2017-q2-update/bin/../lib/gcc/arm-none-eabi/6.3.1/../../../../arm-none-eabi/lib/thumb/v7e-m/libc_nano.a(lib_a-nano-mallocr.o)
 .ARM.attributes
                0x0000000000000eed       0x2e /home/deepika/Tools_controller/gcc-arm-none-eabi-6-2017-q2-update/bin/../lib/gcc/arm-none-eabi/6.3.1/../../../../arm-none-eabi/lib/thumb/v7e-m/libc_nano.a(lib_a-nano-reallocr.o)
 .ARM.attributes
                0x0000000000000f1b       0x2e /home/deepika/Tools_controller/gcc-arm-none-eabi-6-2017-q2-update/bin/../lib/gcc/arm-none-eabi/6.3.1/../../../../arm-none-eabi/lib/thumb/v7e-m/libc_nano.a(lib_a-sbrkr.o)
 .ARM.attributes
                0x0000000000000f49       0x2e /home/deepika/Tools_controller/gcc-arm-none-eabi-6-2017-q2-update/bin/../lib/gcc/arm-none-eabi/6.3.1/../../../../arm-none-eabi/lib/thumb/v7e-m/libc_nano.a(lib_a-mlock.o)
 .ARM.attributes
                0x0000000000000f77       0x2e /home/deepika/Tools_controller/gcc-arm-none-eabi-6-2017-q2-update/bin/../lib/gcc/arm-none-eabi/6.3.1/../../../../arm-none-eabi/lib/thumb/v7e-m/libc_nano.a(lib_a-nano-msizer.o)
 .ARM.attributes
                0x0000000000000fa5       0x2e /home/deepika/Tools_controller/gcc-arm-none-eabi-6-2017-q2-update/bin/../lib/gcc/arm-none-eabi/6.3.1/../../../../arm-none-eabi/lib/thumb/v7e-m/libc_nano.a(lib_a-reent.o)
 .ARM.attributes
                0x0000000000000fd3       0x1e /home/deepika/Tools_controller/gcc-arm-none-eabi-6-2017-q2-update/bin/../lib/gcc/arm-none-eabi/6.3.1/thumb/v7e-m/libgcc.a(_arm_addsubdf3.o)
 .ARM.attributes
                0x0000000000000ff1       0x1e /home/deepika/Tools_controller/gcc-arm-none-eabi-6-2017-q2-update/bin/../lib/gcc/arm-none-eabi/6.3.1/thumb/v7e-m/libgcc.a(_arm_muldivdf3.o)
 .ARM.attributes
                0x000000000000100f       0x1e /home/deepika/Tools_controller/gcc-arm-none-eabi-6-2017-q2-update/bin/../lib/gcc/arm-none-eabi/6.3.1/thumb/v7e-m/libgcc.a(_arm_cmpdf2.o)
 .ARM.attributes
                0x000000000000102d       0x1e /home/deepika/Tools_controller/gcc-arm-none-eabi-6-2017-q2-update/bin/../lib/gcc/arm-none-eabi/6.3.1/thumb/v7e-m/libgcc.a(_arm_fixdfsi.o)
 .ARM.attributes
                0x000000000000104b       0x1e /home/deepika/Tools_controller/gcc-arm-none-eabi-6-2017-q2-update/bin/../lib/gcc/arm-none-eabi/6.3.1/thumb/v7e-m/libgcc.a(_arm_truncdfsf2.o)
 .ARM.attributes
                0x0000000000001069       0x1e /home/deepika/Tools_controller/gcc-arm-none-eabi-6-2017-q2-update/bin/../lib/gcc/arm-none-eabi/6.3.1/thumb/v7e-m/libgcc.a(_arm_addsubsf3.o)
 .ARM.attributes
                0x0000000000001087       0x1e /home/deepika/Tools_controller/gcc-arm-none-eabi-6-2017-q2-update/bin/../lib/gcc/arm-none-eabi/6.3.1/thumb/v7e-m/libgcc.a(_arm_muldivsf3.o)
 .ARM.attributes
                0x00000000000010a5       0x1e /home/deepika/Tools_controller/gcc-arm-none-eabi-6-2017-q2-update/bin/../lib/gcc/arm-none-eabi/6.3.1/thumb/v7e-m/libgcc.a(_arm_fixsfsi.o)
 .ARM.attributes
                0x00000000000010c3       0x2e /home/deepika/Tools_controller/gcc-arm-none-eabi-6-2017-q2-update/bin/../lib/gcc/arm-none-eabi/6.3.1/../../../../arm-none-eabi/lib/thumb/v7e-m/libnosys.a(sbrk.o)
 .ARM.attributes
                0x00000000000010f1       0x2e /home/deepika/Tools_controller/gcc-arm-none-eabi-6-2017-q2-update/bin/../lib/gcc/arm-none-eabi/6.3.1/../../../../arm-none-eabi/lib/thumb/v7e-m/libnosys.a(_exit.o)
 .ARM.attributes
                0x000000000000111f       0x2e /home/deepika/Tools_controller/gcc-arm-none-eabi-6-2017-q2-update/bin/../lib/gcc/arm-none-eabi/6.3.1/thumb/v7e-m/crtend.o
 .ARM.attributes
                0x000000000000114d       0x1e /home/deepika/Tools_controller/gcc-arm-none-eabi-6-2017-q2-update/bin/../lib/gcc/arm-none-eabi/6.3.1/thumb/v7e-m/crtn.o
                0x0000000000000001                ASSERT ((__StackTop < 0x1f81c000), m_data overlaps to HIF)
                0x0000000000000001                ASSERT ((__StackLimit >= __HeapLimit), region m_data overflowed with stack and heap)
OUTPUT(release/la9310.elf elf32-littlearm)

.debug_info     0x0000000000000000    0x504f7
 .debug_info    0x0000000000000000      0x49a CMakeFiles/la9310.dir/home/deepika/21_sept_macro_changes/PS_NLM_5G_LAT/nlm_controller/Source/portable/GCC/ARM_CM4/port.c.obj
 .debug_info    0x000000000000049a      0xb3f CMakeFiles/la9310.dir/home/deepika/21_sept_macro_changes/PS_NLM_5G_LAT/nlm_controller/Source/portable/MemMang/heap_2.c.obj
 .debug_info    0x0000000000000fd9     0x1370 CMakeFiles/la9310.dir/home/deepika/21_sept_macro_changes/PS_NLM_5G_LAT/nlm_controller/Source/event_groups.c.obj
 .debug_info    0x0000000000002349      0xaaf CMakeFiles/la9310.dir/home/deepika/21_sept_macro_changes/PS_NLM_5G_LAT/nlm_controller/Source/list.c.obj
 .debug_info    0x0000000000002df8     0x2456 CMakeFiles/la9310.dir/home/deepika/21_sept_macro_changes/PS_NLM_5G_LAT/nlm_controller/Source/queue.c.obj
 .debug_info    0x000000000000524e     0x285c CMakeFiles/la9310.dir/home/deepika/21_sept_macro_changes/PS_NLM_5G_LAT/nlm_controller/Source/tasks.c.obj
 .debug_info    0x0000000000007aaa     0x1b58 CMakeFiles/la9310.dir/home/deepika/21_sept_macro_changes/PS_NLM_5G_LAT/nlm_controller/Source/timers.c.obj
 .debug_info    0x0000000000009602     0x162f CMakeFiles/la9310.dir/drivers/serial/debug_console.c.obj
 .debug_info    0x000000000000ac31     0x1a78 CMakeFiles/la9310.dir/drivers/serial/print_scan.c.obj
 .debug_info    0x000000000000c6a9     0x1423 CMakeFiles/la9310.dir/drivers/serial/serial_ns16550.c.obj
 .debug_info    0x000000000000dacc     0x12f6 CMakeFiles/la9310.dir/drivers/serial/nmm_logging.c.obj
 .debug_info    0x000000000000edc2     0x1a8a CMakeFiles/la9310.dir/drivers/edma/la9310_edma.c.obj
 .debug_info    0x000000000001084c     0x1274 CMakeFiles/la9310.dir/drivers/misc/mem_log.c.obj
 .debug_info    0x0000000000011ac0     0x19ff CMakeFiles/la9310.dir/drivers/watchdog/la9310_watchdog.c.obj
 .debug_info    0x00000000000134bf     0x12a2 CMakeFiles/la9310.dir/platform/ARM_CM4/soc.c.obj
 .debug_info    0x0000000000014761       0xfb CMakeFiles/la9310.dir/platform/ARM_CM4/start.S.obj
 .debug_info    0x000000000001485c     0x1299 CMakeFiles/la9310.dir/platform/boards/la9310/board.c.obj
 .debug_info    0x0000000000015af5     0x170d CMakeFiles/la9310.dir/platform/ARM_CM4/exceptions.c.obj
 .debug_info    0x0000000000017202     0x1488 CMakeFiles/la9310.dir/platform/boards/la9310/hardware_init.c.obj
 .debug_info    0x000000000001868a     0x2717 CMakeFiles/la9310.dir/main.c.obj
 .debug_info    0x000000000001ada1     0x195f CMakeFiles/la9310.dir/cmd_ctrl_vspa_intfce.c.obj
 .debug_info    0x000000000001c700     0x15e0 CMakeFiles/la9310.dir/nmm_avi.c.obj
 .debug_info    0x000000000001dce0     0x6c09 CMakeFiles/la9310.dir/nmm_app.c.obj
 .debug_info    0x00000000000248e9     0x217d CMakeFiles/la9310.dir/la9310_irq.c.obj
 .debug_info    0x0000000000026a66     0x20fd CMakeFiles/la9310.dir/drivers/misc/bbdev_ipc.c.obj
 .debug_info    0x0000000000028b63     0x3547 CMakeFiles/la9310.dir/drivers/avi/la9310_avi.c.obj
 .debug_info    0x000000000002c0aa     0x16e5 CMakeFiles/la9310.dir/drivers/misc/la9310_gpio.c.obj
 .debug_info    0x000000000002d78f      0x914 CMakeFiles/la9310.dir/drivers/misc/la9310_pinmux.c.obj
 .debug_info    0x000000000002e0a3     0x2acc CMakeFiles/la9310.dir/drivers/i2c/la9310_i2c.c.obj
 .debug_info    0x0000000000030b6f     0x1889 CMakeFiles/la9310.dir/drivers/pcie/la9310_pcie.c.obj
 .debug_info    0x00000000000323f8     0x1c59 CMakeFiles/la9310.dir/drivers/dspi/fsl_dspi.c.obj
 .debug_info    0x0000000000034051     0x1e02 CMakeFiles/la9310.dir/drivers/phy_timer/phytimer.c.obj
 .debug_info    0x0000000000035e53     0x4955 CMakeFiles/la9310.dir/drivers/timesync/sync_timing_device.c.obj
 .debug_info    0x000000000003a7a8     0x1a8a CMakeFiles/la9310.dir/sw_cmd_engine/sw_cmd_engine.c.obj
 .debug_info    0x000000000003c232       0x4c CMakeFiles/la9310.dir/utils/delay.c.obj
 .debug_info    0x000000000003c27e     0x1c32 CMakeFiles/la9310.dir/drivers/dcs/la9310_dcs.c.obj
 .debug_info    0x000000000003deb0      0xd69 CMakeFiles/la9310.dir/utils/FreeRTOS-Plus-CLI-Source/FreeRTOS_CLI.c.obj
 .debug_info    0x000000000003ec19     0x1e86 CMakeFiles/la9310.dir/utils/command_from_shell.c.obj
 .debug_info    0x0000000000040a9f     0x14f8 CMakeFiles/la9310.dir/utils/UARTCommandConsole.c.obj
 .debug_info    0x0000000000041f97     0x1b4f CMakeFiles/la9310.dir/drivers/rfic/rfic_init.c.obj
 .debug_info    0x0000000000043ae6     0x1880 CMakeFiles/la9310.dir/drivers/rfic/rfic_core.c.obj
 .debug_info    0x0000000000045366     0x1531 CMakeFiles/la9310.dir/drivers/rfic/rfic_avi_ctrl.c.obj
 .debug_info    0x0000000000046897     0x19cb CMakeFiles/la9310.dir/drivers/rfic/rfic_api.c.obj
 .debug_info    0x0000000000048262     0x164e CMakeFiles/la9310.dir/drivers/rfic/rfic_vga.c.obj
 .debug_info    0x00000000000498b0     0x1ae2 CMakeFiles/la9310.dir/drivers/rfic/rfic_synth.c.obj
 .debug_info    0x000000000004b392     0x1acb CMakeFiles/la9310.dir/drivers/rfic/rfic_demod.c.obj
 .debug_info    0x000000000004ce5d     0x23b4 CMakeFiles/la9310.dir/drivers/rfic/rfic_cmd.c.obj
 .debug_info    0x000000000004f211     0x12e6 CMakeFiles/la9310.dir/drivers/rfic/rfic_dac.c.obj

.debug_abbrev   0x0000000000000000     0x91f8
 .debug_abbrev  0x0000000000000000      0x21e CMakeFiles/la9310.dir/home/deepika/21_sept_macro_changes/PS_NLM_5G_LAT/nlm_controller/Source/portable/GCC/ARM_CM4/port.c.obj
 .debug_abbrev  0x000000000000021e      0x2db CMakeFiles/la9310.dir/home/deepika/21_sept_macro_changes/PS_NLM_5G_LAT/nlm_controller/Source/portable/MemMang/heap_2.c.obj
 .debug_abbrev  0x00000000000004f9      0x3c9 CMakeFiles/la9310.dir/home/deepika/21_sept_macro_changes/PS_NLM_5G_LAT/nlm_controller/Source/event_groups.c.obj
 .debug_abbrev  0x00000000000008c2      0x217 CMakeFiles/la9310.dir/home/deepika/21_sept_macro_changes/PS_NLM_5G_LAT/nlm_controller/Source/list.c.obj
 .debug_abbrev  0x0000000000000ad9      0x3fe CMakeFiles/la9310.dir/home/deepika/21_sept_macro_changes/PS_NLM_5G_LAT/nlm_controller/Source/queue.c.obj
 .debug_abbrev  0x0000000000000ed7      0x46b CMakeFiles/la9310.dir/home/deepika/21_sept_macro_changes/PS_NLM_5G_LAT/nlm_controller/Source/tasks.c.obj
 .debug_abbrev  0x0000000000001342      0x3bd CMakeFiles/la9310.dir/home/deepika/21_sept_macro_changes/PS_NLM_5G_LAT/nlm_controller/Source/timers.c.obj
 .debug_abbrev  0x00000000000016ff      0x2f8 CMakeFiles/la9310.dir/drivers/serial/debug_console.c.obj
 .debug_abbrev  0x00000000000019f7      0x3b1 CMakeFiles/la9310.dir/drivers/serial/print_scan.c.obj
 .debug_abbrev  0x0000000000001da8      0x237 CMakeFiles/la9310.dir/drivers/serial/serial_ns16550.c.obj
 .debug_abbrev  0x0000000000001fdf      0x265 CMakeFiles/la9310.dir/drivers/serial/nmm_logging.c.obj
 .debug_abbrev  0x0000000000002244      0x30d CMakeFiles/la9310.dir/drivers/edma/la9310_edma.c.obj
 .debug_abbrev  0x0000000000002551      0x20f CMakeFiles/la9310.dir/drivers/misc/mem_log.c.obj
 .debug_abbrev  0x0000000000002760      0x330 CMakeFiles/la9310.dir/drivers/watchdog/la9310_watchdog.c.obj
 .debug_abbrev  0x0000000000002a90      0x226 CMakeFiles/la9310.dir/platform/ARM_CM4/soc.c.obj
 .debug_abbrev  0x0000000000002cb6       0x12 CMakeFiles/la9310.dir/platform/ARM_CM4/start.S.obj
 .debug_abbrev  0x0000000000002cc8      0x20b CMakeFiles/la9310.dir/platform/boards/la9310/board.c.obj
 .debug_abbrev  0x0000000000002ed3      0x2b2 CMakeFiles/la9310.dir/platform/ARM_CM4/exceptions.c.obj
 .debug_abbrev  0x0000000000003185      0x25e CMakeFiles/la9310.dir/platform/boards/la9310/hardware_init.c.obj
 .debug_abbrev  0x00000000000033e3      0x48e CMakeFiles/la9310.dir/main.c.obj
 .debug_abbrev  0x0000000000003871      0x308 CMakeFiles/la9310.dir/cmd_ctrl_vspa_intfce.c.obj
 .debug_abbrev  0x0000000000003b79      0x2d7 CMakeFiles/la9310.dir/nmm_avi.c.obj
 .debug_abbrev  0x0000000000003e50      0x715 CMakeFiles/la9310.dir/nmm_app.c.obj
 .debug_abbrev  0x0000000000004565      0x484 CMakeFiles/la9310.dir/la9310_irq.c.obj
 .debug_abbrev  0x00000000000049e9      0x44a CMakeFiles/la9310.dir/drivers/misc/bbdev_ipc.c.obj
 .debug_abbrev  0x0000000000004e33      0x449 CMakeFiles/la9310.dir/drivers/avi/la9310_avi.c.obj
 .debug_abbrev  0x000000000000527c      0x2d2 CMakeFiles/la9310.dir/drivers/misc/la9310_gpio.c.obj
 .debug_abbrev  0x000000000000554e      0x1ce CMakeFiles/la9310.dir/drivers/misc/la9310_pinmux.c.obj
 .debug_abbrev  0x000000000000571c      0x43c CMakeFiles/la9310.dir/drivers/i2c/la9310_i2c.c.obj
 .debug_abbrev  0x0000000000005b58      0x33a CMakeFiles/la9310.dir/drivers/pcie/la9310_pcie.c.obj
 .debug_abbrev  0x0000000000005e92      0x360 CMakeFiles/la9310.dir/drivers/dspi/fsl_dspi.c.obj
 .debug_abbrev  0x00000000000061f2      0x385 CMakeFiles/la9310.dir/drivers/phy_timer/phytimer.c.obj
 .debug_abbrev  0x0000000000006577      0x4d7 CMakeFiles/la9310.dir/drivers/timesync/sync_timing_device.c.obj
 .debug_abbrev  0x0000000000006a4e      0x2f7 CMakeFiles/la9310.dir/sw_cmd_engine/sw_cmd_engine.c.obj
 .debug_abbrev  0x0000000000006d45       0x46 CMakeFiles/la9310.dir/utils/delay.c.obj
 .debug_abbrev  0x0000000000006d8b      0x3a2 CMakeFiles/la9310.dir/drivers/dcs/la9310_dcs.c.obj
 .debug_abbrev  0x000000000000712d      0x32e CMakeFiles/la9310.dir/utils/FreeRTOS-Plus-CLI-Source/FreeRTOS_CLI.c.obj
 .debug_abbrev  0x000000000000745b      0x33f CMakeFiles/la9310.dir/utils/command_from_shell.c.obj
 .debug_abbrev  0x000000000000779a      0x2a7 CMakeFiles/la9310.dir/utils/UARTCommandConsole.c.obj
 .debug_abbrev  0x0000000000007a41      0x2b1 CMakeFiles/la9310.dir/drivers/rfic/rfic_init.c.obj
 .debug_abbrev  0x0000000000007cf2      0x29b CMakeFiles/la9310.dir/drivers/rfic/rfic_core.c.obj
 .debug_abbrev  0x0000000000007f8d      0x29b CMakeFiles/la9310.dir/drivers/rfic/rfic_avi_ctrl.c.obj
 .debug_abbrev  0x0000000000008228      0x237 CMakeFiles/la9310.dir/drivers/rfic/rfic_api.c.obj
 .debug_abbrev  0x000000000000845f      0x276 CMakeFiles/la9310.dir/drivers/rfic/rfic_vga.c.obj
 .debug_abbrev  0x00000000000086d5      0x2c6 CMakeFiles/la9310.dir/drivers/rfic/rfic_synth.c.obj
 .debug_abbrev  0x000000000000899b      0x2fc CMakeFiles/la9310.dir/drivers/rfic/rfic_demod.c.obj
 .debug_abbrev  0x0000000000008c97      0x31f CMakeFiles/la9310.dir/drivers/rfic/rfic_cmd.c.obj
 .debug_abbrev  0x0000000000008fb6      0x242 CMakeFiles/la9310.dir/drivers/rfic/rfic_dac.c.obj

.debug_loc      0x0000000000000000    0x14968
 .debug_loc     0x0000000000000000       0xce CMakeFiles/la9310.dir/home/deepika/21_sept_macro_changes/PS_NLM_5G_LAT/nlm_controller/Source/portable/GCC/ARM_CM4/port.c.obj
 .debug_loc     0x00000000000000ce      0x266 CMakeFiles/la9310.dir/home/deepika/21_sept_macro_changes/PS_NLM_5G_LAT/nlm_controller/Source/portable/MemMang/heap_2.c.obj
 .debug_loc     0x0000000000000334      0x810 CMakeFiles/la9310.dir/home/deepika/21_sept_macro_changes/PS_NLM_5G_LAT/nlm_controller/Source/event_groups.c.obj
 .debug_loc     0x0000000000000b44       0x7c CMakeFiles/la9310.dir/home/deepika/21_sept_macro_changes/PS_NLM_5G_LAT/nlm_controller/Source/list.c.obj
 .debug_loc     0x0000000000000bc0     0x11c0 CMakeFiles/la9310.dir/home/deepika/21_sept_macro_changes/PS_NLM_5G_LAT/nlm_controller/Source/queue.c.obj
 .debug_loc     0x0000000000001d80     0x12b3 CMakeFiles/la9310.dir/home/deepika/21_sept_macro_changes/PS_NLM_5G_LAT/nlm_controller/Source/tasks.c.obj
 .debug_loc     0x0000000000003033      0xa9b CMakeFiles/la9310.dir/home/deepika/21_sept_macro_changes/PS_NLM_5G_LAT/nlm_controller/Source/timers.c.obj
 .debug_loc     0x0000000000003ace      0x261 CMakeFiles/la9310.dir/drivers/serial/debug_console.c.obj
 .debug_loc     0x0000000000003d2f      0xf1f CMakeFiles/la9310.dir/drivers/serial/print_scan.c.obj
 .debug_loc     0x0000000000004c4e      0x127 CMakeFiles/la9310.dir/drivers/serial/serial_ns16550.c.obj
 .debug_loc     0x0000000000004d75       0x42 CMakeFiles/la9310.dir/drivers/serial/nmm_logging.c.obj
 .debug_loc     0x0000000000004db7      0x3f8 CMakeFiles/la9310.dir/drivers/edma/la9310_edma.c.obj
 .debug_loc     0x00000000000051af       0x75 CMakeFiles/la9310.dir/drivers/misc/mem_log.c.obj
 .debug_loc     0x0000000000005224      0x222 CMakeFiles/la9310.dir/drivers/watchdog/la9310_watchdog.c.obj
 .debug_loc     0x0000000000005446       0x45 CMakeFiles/la9310.dir/platform/ARM_CM4/soc.c.obj
 .debug_loc     0x000000000000548b       0xc8 CMakeFiles/la9310.dir/platform/ARM_CM4/exceptions.c.obj
 .debug_loc     0x0000000000005553       0x34 CMakeFiles/la9310.dir/platform/boards/la9310/hardware_init.c.obj
 .debug_loc     0x0000000000005587      0x7e2 CMakeFiles/la9310.dir/main.c.obj
 .debug_loc     0x0000000000005d69      0x47d CMakeFiles/la9310.dir/cmd_ctrl_vspa_intfce.c.obj
 .debug_loc     0x00000000000061e6      0x2ee CMakeFiles/la9310.dir/nmm_avi.c.obj
 .debug_loc     0x00000000000064d4     0x2239 CMakeFiles/la9310.dir/nmm_app.c.obj
 .debug_loc     0x000000000000870d      0x933 CMakeFiles/la9310.dir/la9310_irq.c.obj
 .debug_loc     0x0000000000009040      0xad8 CMakeFiles/la9310.dir/drivers/misc/bbdev_ipc.c.obj
 .debug_loc     0x0000000000009b18      0xf81 CMakeFiles/la9310.dir/drivers/avi/la9310_avi.c.obj
 .debug_loc     0x000000000000aa99      0x53d CMakeFiles/la9310.dir/drivers/misc/la9310_gpio.c.obj
 .debug_loc     0x000000000000afd6       0x63 CMakeFiles/la9310.dir/drivers/misc/la9310_pinmux.c.obj
 .debug_loc     0x000000000000b039     0x1c72 CMakeFiles/la9310.dir/drivers/i2c/la9310_i2c.c.obj
 .debug_loc     0x000000000000ccab      0x2d3 CMakeFiles/la9310.dir/drivers/pcie/la9310_pcie.c.obj
 .debug_loc     0x000000000000cf7e      0x960 CMakeFiles/la9310.dir/drivers/dspi/fsl_dspi.c.obj
 .debug_loc     0x000000000000d8de      0x5a0 CMakeFiles/la9310.dir/drivers/phy_timer/phytimer.c.obj
 .debug_loc     0x000000000000de7e     0x1eb0 CMakeFiles/la9310.dir/drivers/timesync/sync_timing_device.c.obj
 .debug_loc     0x000000000000fd2e      0x1d4 CMakeFiles/la9310.dir/sw_cmd_engine/sw_cmd_engine.c.obj
 .debug_loc     0x000000000000ff02      0xecd CMakeFiles/la9310.dir/drivers/dcs/la9310_dcs.c.obj
 .debug_loc     0x0000000000010dcf      0x365 CMakeFiles/la9310.dir/utils/FreeRTOS-Plus-CLI-Source/FreeRTOS_CLI.c.obj
 .debug_loc     0x0000000000011134      0x638 CMakeFiles/la9310.dir/utils/command_from_shell.c.obj
 .debug_loc     0x000000000001176c      0x10a CMakeFiles/la9310.dir/utils/UARTCommandConsole.c.obj
 .debug_loc     0x0000000000011876      0x59b CMakeFiles/la9310.dir/drivers/rfic/rfic_init.c.obj
 .debug_loc     0x0000000000011e11      0x390 CMakeFiles/la9310.dir/drivers/rfic/rfic_core.c.obj
 .debug_loc     0x00000000000121a1      0x2df CMakeFiles/la9310.dir/drivers/rfic/rfic_avi_ctrl.c.obj
 .debug_loc     0x0000000000012480      0x4d0 CMakeFiles/la9310.dir/drivers/rfic/rfic_api.c.obj
 .debug_loc     0x0000000000012950      0x1a2 CMakeFiles/la9310.dir/drivers/rfic/rfic_vga.c.obj
 .debug_loc     0x0000000000012af2      0x91a CMakeFiles/la9310.dir/drivers/rfic/rfic_synth.c.obj
 .debug_loc     0x000000000001340c      0x901 CMakeFiles/la9310.dir/drivers/rfic/rfic_demod.c.obj
 .debug_loc     0x0000000000013d0d      0xbe5 CMakeFiles/la9310.dir/drivers/rfic/rfic_cmd.c.obj
 .debug_loc     0x00000000000148f2       0x76 CMakeFiles/la9310.dir/drivers/rfic/rfic_dac.c.obj

.debug_aranges  0x0000000000000000     0x1070
 .debug_aranges
                0x0000000000000000       0x78 CMakeFiles/la9310.dir/home/deepika/21_sept_macro_changes/PS_NLM_5G_LAT/nlm_controller/Source/portable/GCC/ARM_CM4/port.c.obj
 .debug_aranges
                0x0000000000000078       0x38 CMakeFiles/la9310.dir/home/deepika/21_sept_macro_changes/PS_NLM_5G_LAT/nlm_controller/Source/portable/MemMang/heap_2.c.obj
 .debug_aranges
                0x00000000000000b0       0x60 CMakeFiles/la9310.dir/home/deepika/21_sept_macro_changes/PS_NLM_5G_LAT/nlm_controller/Source/event_groups.c.obj
 .debug_aranges
                0x0000000000000110       0x40 CMakeFiles/la9310.dir/home/deepika/21_sept_macro_changes/PS_NLM_5G_LAT/nlm_controller/Source/list.c.obj
 .debug_aranges
                0x0000000000000150      0x100 CMakeFiles/la9310.dir/home/deepika/21_sept_macro_changes/PS_NLM_5G_LAT/nlm_controller/Source/queue.c.obj
 .debug_aranges
                0x0000000000000250      0x170 CMakeFiles/la9310.dir/home/deepika/21_sept_macro_changes/PS_NLM_5G_LAT/nlm_controller/Source/tasks.c.obj
 .debug_aranges
                0x00000000000003c0       0x98 CMakeFiles/la9310.dir/home/deepika/21_sept_macro_changes/PS_NLM_5G_LAT/nlm_controller/Source/timers.c.obj
 .debug_aranges
                0x0000000000000458       0x50 CMakeFiles/la9310.dir/drivers/serial/debug_console.c.obj
 .debug_aranges
                0x00000000000004a8       0x48 CMakeFiles/la9310.dir/drivers/serial/print_scan.c.obj
 .debug_aranges
                0x00000000000004f0       0x30 CMakeFiles/la9310.dir/drivers/serial/serial_ns16550.c.obj
 .debug_aranges
                0x0000000000000520       0x28 CMakeFiles/la9310.dir/drivers/serial/nmm_logging.c.obj
 .debug_aranges
                0x0000000000000548       0x40 CMakeFiles/la9310.dir/drivers/edma/la9310_edma.c.obj
 .debug_aranges
                0x0000000000000588       0x20 CMakeFiles/la9310.dir/drivers/misc/mem_log.c.obj
 .debug_aranges
                0x00000000000005a8       0x38 CMakeFiles/la9310.dir/drivers/watchdog/la9310_watchdog.c.obj
 .debug_aranges
                0x00000000000005e0       0x30 CMakeFiles/la9310.dir/platform/ARM_CM4/soc.c.obj
 .debug_aranges
                0x0000000000000610       0x28 CMakeFiles/la9310.dir/platform/ARM_CM4/start.S.obj
 .debug_aranges
                0x0000000000000638       0x28 CMakeFiles/la9310.dir/platform/boards/la9310/board.c.obj
 .debug_aranges
                0x0000000000000660       0x30 CMakeFiles/la9310.dir/platform/ARM_CM4/exceptions.c.obj
 .debug_aranges
                0x0000000000000690       0x28 CMakeFiles/la9310.dir/platform/boards/la9310/hardware_init.c.obj
 .debug_aranges
                0x00000000000006b8       0x60 CMakeFiles/la9310.dir/main.c.obj
 .debug_aranges
                0x0000000000000718       0x30 CMakeFiles/la9310.dir/cmd_ctrl_vspa_intfce.c.obj
 .debug_aranges
                0x0000000000000748       0x28 CMakeFiles/la9310.dir/nmm_avi.c.obj
 .debug_aranges
                0x0000000000000770      0x158 CMakeFiles/la9310.dir/nmm_app.c.obj
 .debug_aranges
                0x00000000000008c8       0x50 CMakeFiles/la9310.dir/la9310_irq.c.obj
 .debug_aranges
                0x0000000000000918       0x68 CMakeFiles/la9310.dir/drivers/misc/bbdev_ipc.c.obj
 .debug_aranges
                0x0000000000000980       0x88 CMakeFiles/la9310.dir/drivers/avi/la9310_avi.c.obj
 .debug_aranges
                0x0000000000000a08       0x40 CMakeFiles/la9310.dir/drivers/misc/la9310_gpio.c.obj
 .debug_aranges
                0x0000000000000a48       0x28 CMakeFiles/la9310.dir/drivers/misc/la9310_pinmux.c.obj
 .debug_aranges
                0x0000000000000a70       0x68 CMakeFiles/la9310.dir/drivers/i2c/la9310_i2c.c.obj
 .debug_aranges
                0x0000000000000ad8       0x50 CMakeFiles/la9310.dir/drivers/pcie/la9310_pcie.c.obj
 .debug_aranges
                0x0000000000000b28       0x68 CMakeFiles/la9310.dir/drivers/dspi/fsl_dspi.c.obj
 .debug_aranges
                0x0000000000000b90       0xc0 CMakeFiles/la9310.dir/drivers/phy_timer/phytimer.c.obj
 .debug_aranges
                0x0000000000000c50       0x88 CMakeFiles/la9310.dir/drivers/timesync/sync_timing_device.c.obj
 .debug_aranges
                0x0000000000000cd8       0x30 CMakeFiles/la9310.dir/sw_cmd_engine/sw_cmd_engine.c.obj
 .debug_aranges
                0x0000000000000d08       0x20 CMakeFiles/la9310.dir/utils/delay.c.obj
 .debug_aranges
                0x0000000000000d28       0x58 CMakeFiles/la9310.dir/drivers/dcs/la9310_dcs.c.obj
 .debug_aranges
                0x0000000000000d80       0x40 CMakeFiles/la9310.dir/utils/FreeRTOS-Plus-CLI-Source/FreeRTOS_CLI.c.obj
 .debug_aranges
                0x0000000000000dc0       0x58 CMakeFiles/la9310.dir/utils/command_from_shell.c.obj
 .debug_aranges
                0x0000000000000e18       0x28 CMakeFiles/la9310.dir/utils/UARTCommandConsole.c.obj
 .debug_aranges
                0x0000000000000e40       0x38 CMakeFiles/la9310.dir/drivers/rfic/rfic_init.c.obj
 .debug_aranges
                0x0000000000000e78       0x38 CMakeFiles/la9310.dir/drivers/rfic/rfic_core.c.obj
 .debug_aranges
                0x0000000000000eb0       0x28 CMakeFiles/la9310.dir/drivers/rfic/rfic_avi_ctrl.c.obj
 .debug_aranges
                0x0000000000000ed8       0x58 CMakeFiles/la9310.dir/drivers/rfic/rfic_api.c.obj
 .debug_aranges
                0x0000000000000f30       0x28 CMakeFiles/la9310.dir/drivers/rfic/rfic_vga.c.obj
 .debug_aranges
                0x0000000000000f58       0x40 CMakeFiles/la9310.dir/drivers/rfic/rfic_synth.c.obj
 .debug_aranges
                0x0000000000000f98       0x40 CMakeFiles/la9310.dir/drivers/rfic/rfic_demod.c.obj
 .debug_aranges
                0x0000000000000fd8       0x78 CMakeFiles/la9310.dir/drivers/rfic/rfic_cmd.c.obj
 .debug_aranges
                0x0000000000001050       0x20 CMakeFiles/la9310.dir/drivers/rfic/rfic_dac.c.obj

.debug_ranges   0x0000000000000000     0x23b0
 .debug_ranges  0x0000000000000000       0x80 CMakeFiles/la9310.dir/home/deepika/21_sept_macro_changes/PS_NLM_5G_LAT/nlm_controller/Source/portable/GCC/ARM_CM4/port.c.obj
 .debug_ranges  0x0000000000000080       0x60 CMakeFiles/la9310.dir/home/deepika/21_sept_macro_changes/PS_NLM_5G_LAT/nlm_controller/Source/portable/MemMang/heap_2.c.obj
 .debug_ranges  0x00000000000000e0       0xb8 CMakeFiles/la9310.dir/home/deepika/21_sept_macro_changes/PS_NLM_5G_LAT/nlm_controller/Source/event_groups.c.obj
 .debug_ranges  0x0000000000000198       0x30 CMakeFiles/la9310.dir/home/deepika/21_sept_macro_changes/PS_NLM_5G_LAT/nlm_controller/Source/list.c.obj
 .debug_ranges  0x00000000000001c8      0x210 CMakeFiles/la9310.dir/home/deepika/21_sept_macro_changes/PS_NLM_5G_LAT/nlm_controller/Source/queue.c.obj
 .debug_ranges  0x00000000000003d8      0x240 CMakeFiles/la9310.dir/home/deepika/21_sept_macro_changes/PS_NLM_5G_LAT/nlm_controller/Source/tasks.c.obj
 .debug_ranges  0x0000000000000618      0x118 CMakeFiles/la9310.dir/home/deepika/21_sept_macro_changes/PS_NLM_5G_LAT/nlm_controller/Source/timers.c.obj
 .debug_ranges  0x0000000000000730       0x40 CMakeFiles/la9310.dir/drivers/serial/debug_console.c.obj
 .debug_ranges  0x0000000000000770       0x38 CMakeFiles/la9310.dir/drivers/serial/print_scan.c.obj
 .debug_ranges  0x00000000000007a8       0x20 CMakeFiles/la9310.dir/drivers/serial/serial_ns16550.c.obj
 .debug_ranges  0x00000000000007c8       0x18 CMakeFiles/la9310.dir/drivers/serial/nmm_logging.c.obj
 .debug_ranges  0x00000000000007e0       0x48 CMakeFiles/la9310.dir/drivers/edma/la9310_edma.c.obj
 .debug_ranges  0x0000000000000828       0x10 CMakeFiles/la9310.dir/drivers/misc/mem_log.c.obj
 .debug_ranges  0x0000000000000838       0x58 CMakeFiles/la9310.dir/drivers/watchdog/la9310_watchdog.c.obj
 .debug_ranges  0x0000000000000890       0x20 CMakeFiles/la9310.dir/platform/ARM_CM4/soc.c.obj
 .debug_ranges  0x00000000000008b0       0x20 CMakeFiles/la9310.dir/platform/ARM_CM4/start.S.obj
 .debug_ranges  0x00000000000008d0       0x18 CMakeFiles/la9310.dir/platform/boards/la9310/board.c.obj
 .debug_ranges  0x00000000000008e8       0x88 CMakeFiles/la9310.dir/platform/ARM_CM4/exceptions.c.obj
 .debug_ranges  0x0000000000000970       0x18 CMakeFiles/la9310.dir/platform/boards/la9310/hardware_init.c.obj
 .debug_ranges  0x0000000000000988       0xe8 CMakeFiles/la9310.dir/main.c.obj
 .debug_ranges  0x0000000000000a70       0xc8 CMakeFiles/la9310.dir/cmd_ctrl_vspa_intfce.c.obj
 .debug_ranges  0x0000000000000b38       0x18 CMakeFiles/la9310.dir/nmm_avi.c.obj
 .debug_ranges  0x0000000000000b50      0x440 CMakeFiles/la9310.dir/nmm_app.c.obj
 .debug_ranges  0x0000000000000f90       0xc0 CMakeFiles/la9310.dir/la9310_irq.c.obj
 .debug_ranges  0x0000000000001050      0x100 CMakeFiles/la9310.dir/drivers/misc/bbdev_ipc.c.obj
 .debug_ranges  0x0000000000001150      0x198 CMakeFiles/la9310.dir/drivers/avi/la9310_avi.c.obj
 .debug_ranges  0x00000000000012e8       0xa8 CMakeFiles/la9310.dir/drivers/misc/la9310_gpio.c.obj
 .debug_ranges  0x0000000000001390       0x18 CMakeFiles/la9310.dir/drivers/misc/la9310_pinmux.c.obj
 .debug_ranges  0x00000000000013a8      0x270 CMakeFiles/la9310.dir/drivers/i2c/la9310_i2c.c.obj
 .debug_ranges  0x0000000000001618       0x80 CMakeFiles/la9310.dir/drivers/pcie/la9310_pcie.c.obj
 .debug_ranges  0x0000000000001698       0xb8 CMakeFiles/la9310.dir/drivers/dspi/fsl_dspi.c.obj
 .debug_ranges  0x0000000000001750      0x158 CMakeFiles/la9310.dir/drivers/phy_timer/phytimer.c.obj
 .debug_ranges  0x00000000000018a8      0x2b0 CMakeFiles/la9310.dir/drivers/timesync/sync_timing_device.c.obj
 .debug_ranges  0x0000000000001b58       0x80 CMakeFiles/la9310.dir/sw_cmd_engine/sw_cmd_engine.c.obj
 .debug_ranges  0x0000000000001bd8       0x10 CMakeFiles/la9310.dir/utils/delay.c.obj
 .debug_ranges  0x0000000000001be8      0x138 CMakeFiles/la9310.dir/drivers/dcs/la9310_dcs.c.obj
 .debug_ranges  0x0000000000001d20       0x48 CMakeFiles/la9310.dir/utils/FreeRTOS-Plus-CLI-Source/FreeRTOS_CLI.c.obj
 .debug_ranges  0x0000000000001d68       0x60 CMakeFiles/la9310.dir/utils/command_from_shell.c.obj
 .debug_ranges  0x0000000000001dc8       0x38 CMakeFiles/la9310.dir/utils/UARTCommandConsole.c.obj
 .debug_ranges  0x0000000000001e00       0xb8 CMakeFiles/la9310.dir/drivers/rfic/rfic_init.c.obj
 .debug_ranges  0x0000000000001eb8       0x88 CMakeFiles/la9310.dir/drivers/rfic/rfic_core.c.obj
 .debug_ranges  0x0000000000001f40       0x50 CMakeFiles/la9310.dir/drivers/rfic/rfic_avi_ctrl.c.obj
 .debug_ranges  0x0000000000001f90       0x48 CMakeFiles/la9310.dir/drivers/rfic/rfic_api.c.obj
 .debug_ranges  0x0000000000001fd8       0x40 CMakeFiles/la9310.dir/drivers/rfic/rfic_vga.c.obj
 .debug_ranges  0x0000000000002018       0xc0 CMakeFiles/la9310.dir/drivers/rfic/rfic_synth.c.obj
 .debug_ranges  0x00000000000020d8       0xf8 CMakeFiles/la9310.dir/drivers/rfic/rfic_demod.c.obj
 .debug_ranges  0x00000000000021d0      0x1a8 CMakeFiles/la9310.dir/drivers/rfic/rfic_cmd.c.obj
 .debug_ranges  0x0000000000002378       0x38 CMakeFiles/la9310.dir/drivers/rfic/rfic_dac.c.obj

.debug_line     0x0000000000000000    0x12842
 .debug_line    0x0000000000000000      0x367 CMakeFiles/la9310.dir/home/deepika/21_sept_macro_changes/PS_NLM_5G_LAT/nlm_controller/Source/portable/GCC/ARM_CM4/port.c.obj
 .debug_line    0x0000000000000367      0x3a0 CMakeFiles/la9310.dir/home/deepika/21_sept_macro_changes/PS_NLM_5G_LAT/nlm_controller/Source/portable/MemMang/heap_2.c.obj
 .debug_line    0x0000000000000707      0x4f2 CMakeFiles/la9310.dir/home/deepika/21_sept_macro_changes/PS_NLM_5G_LAT/nlm_controller/Source/event_groups.c.obj
 .debug_line    0x0000000000000bf9      0x368 CMakeFiles/la9310.dir/home/deepika/21_sept_macro_changes/PS_NLM_5G_LAT/nlm_controller/Source/list.c.obj
 .debug_line    0x0000000000000f61      0x902 CMakeFiles/la9310.dir/home/deepika/21_sept_macro_changes/PS_NLM_5G_LAT/nlm_controller/Source/queue.c.obj
 .debug_line    0x0000000000001863      0xb44 CMakeFiles/la9310.dir/home/deepika/21_sept_macro_changes/PS_NLM_5G_LAT/nlm_controller/Source/tasks.c.obj
 .debug_line    0x00000000000023a7      0x5da CMakeFiles/la9310.dir/home/deepika/21_sept_macro_changes/PS_NLM_5G_LAT/nlm_controller/Source/timers.c.obj
 .debug_line    0x0000000000002981      0x586 CMakeFiles/la9310.dir/drivers/serial/debug_console.c.obj
 .debug_line    0x0000000000002f07      0x7c4 CMakeFiles/la9310.dir/drivers/serial/print_scan.c.obj
 .debug_line    0x00000000000036cb      0x519 CMakeFiles/la9310.dir/drivers/serial/serial_ns16550.c.obj
 .debug_line    0x0000000000003be4      0x4ff CMakeFiles/la9310.dir/drivers/serial/nmm_logging.c.obj
 .debug_line    0x00000000000040e3      0x5df CMakeFiles/la9310.dir/drivers/edma/la9310_edma.c.obj
 .debug_line    0x00000000000046c2      0x4c8 CMakeFiles/la9310.dir/drivers/misc/mem_log.c.obj
 .debug_line    0x0000000000004b8a      0x62c CMakeFiles/la9310.dir/drivers/watchdog/la9310_watchdog.c.obj
 .debug_line    0x00000000000051b6      0x4e3 CMakeFiles/la9310.dir/platform/ARM_CM4/soc.c.obj
 .debug_line    0x0000000000005699       0xd7 CMakeFiles/la9310.dir/platform/ARM_CM4/start.S.obj
 .debug_line    0x0000000000005770      0x4e4 CMakeFiles/la9310.dir/platform/boards/la9310/board.c.obj
 .debug_line    0x0000000000005c54      0x56e CMakeFiles/la9310.dir/platform/ARM_CM4/exceptions.c.obj
 .debug_line    0x00000000000061c2      0x51a CMakeFiles/la9310.dir/platform/boards/la9310/hardware_init.c.obj
 .debug_line    0x00000000000066dc      0xac1 CMakeFiles/la9310.dir/main.c.obj
 .debug_line    0x000000000000719d      0x6e1 CMakeFiles/la9310.dir/cmd_ctrl_vspa_intfce.c.obj
 .debug_line    0x000000000000787e      0x5aa CMakeFiles/la9310.dir/nmm_avi.c.obj
 .debug_line    0x0000000000007e28      0xf98 CMakeFiles/la9310.dir/nmm_app.c.obj
 .debug_line    0x0000000000008dc0      0x6c5 CMakeFiles/la9310.dir/la9310_irq.c.obj
 .debug_line    0x0000000000009485      0x703 CMakeFiles/la9310.dir/drivers/misc/bbdev_ipc.c.obj
 .debug_line    0x0000000000009b88      0x9c2 CMakeFiles/la9310.dir/drivers/avi/la9310_avi.c.obj
 .debug_line    0x000000000000a54a      0x640 CMakeFiles/la9310.dir/drivers/misc/la9310_gpio.c.obj
 .debug_line    0x000000000000ab8a      0x1c4 CMakeFiles/la9310.dir/drivers/misc/la9310_pinmux.c.obj
 .debug_line    0x000000000000ad4e      0x870 CMakeFiles/la9310.dir/drivers/i2c/la9310_i2c.c.obj
 .debug_line    0x000000000000b5be      0x63b CMakeFiles/la9310.dir/drivers/pcie/la9310_pcie.c.obj
 .debug_line    0x000000000000bbf9      0x6b6 CMakeFiles/la9310.dir/drivers/dspi/fsl_dspi.c.obj
 .debug_line    0x000000000000c2af      0x7ab CMakeFiles/la9310.dir/drivers/phy_timer/phytimer.c.obj
 .debug_line    0x000000000000ca5a      0x956 CMakeFiles/la9310.dir/drivers/timesync/sync_timing_device.c.obj
 .debug_line    0x000000000000d3b0      0x61e CMakeFiles/la9310.dir/sw_cmd_engine/sw_cmd_engine.c.obj
 .debug_line    0x000000000000d9ce       0x9b CMakeFiles/la9310.dir/utils/delay.c.obj
 .debug_line    0x000000000000da69      0x7e5 CMakeFiles/la9310.dir/drivers/dcs/la9310_dcs.c.obj
 .debug_line    0x000000000000e24e      0x413 CMakeFiles/la9310.dir/utils/FreeRTOS-Plus-CLI-Source/FreeRTOS_CLI.c.obj
 .debug_line    0x000000000000e661      0x79a CMakeFiles/la9310.dir/utils/command_from_shell.c.obj
 .debug_line    0x000000000000edfb      0x6bf CMakeFiles/la9310.dir/utils/UARTCommandConsole.c.obj
 .debug_line    0x000000000000f4ba      0x666 CMakeFiles/la9310.dir/drivers/rfic/rfic_init.c.obj
 .debug_line    0x000000000000fb20      0x557 CMakeFiles/la9310.dir/drivers/rfic/rfic_core.c.obj
 .debug_line    0x0000000000010077      0x55a CMakeFiles/la9310.dir/drivers/rfic/rfic_avi_ctrl.c.obj
 .debug_line    0x00000000000105d1      0x61f CMakeFiles/la9310.dir/drivers/rfic/rfic_api.c.obj
 .debug_line    0x0000000000010bf0      0x4a6 CMakeFiles/la9310.dir/drivers/rfic/rfic_vga.c.obj
 .debug_line    0x0000000000011096      0x5a1 CMakeFiles/la9310.dir/drivers/rfic/rfic_synth.c.obj
 .debug_line    0x0000000000011637      0x607 CMakeFiles/la9310.dir/drivers/rfic/rfic_demod.c.obj
 .debug_line    0x0000000000011c3e      0x78d CMakeFiles/la9310.dir/drivers/rfic/rfic_cmd.c.obj
 .debug_line    0x00000000000123cb      0x477 CMakeFiles/la9310.dir/drivers/rfic/rfic_dac.c.obj

.debug_str      0x0000000000000000     0x9c13
 .debug_str     0x0000000000000000      0x3ff CMakeFiles/la9310.dir/home/deepika/21_sept_macro_changes/PS_NLM_5G_LAT/nlm_controller/Source/portable/GCC/ARM_CM4/port.c.obj
                                        0x454 (size before relaxing)
 .debug_str     0x00000000000003ff      0x553 CMakeFiles/la9310.dir/home/deepika/21_sept_macro_changes/PS_NLM_5G_LAT/nlm_controller/Source/portable/MemMang/heap_2.c.obj
                                        0x758 (size before relaxing)
 .debug_str     0x0000000000000952      0x3fe CMakeFiles/la9310.dir/home/deepika/21_sept_macro_changes/PS_NLM_5G_LAT/nlm_controller/Source/event_groups.c.obj
                                        0xa64 (size before relaxing)
 .debug_str     0x0000000000000d50       0xc1 CMakeFiles/la9310.dir/home/deepika/21_sept_macro_changes/PS_NLM_5G_LAT/nlm_controller/Source/list.c.obj
                                        0x703 (size before relaxing)
 .debug_str     0x0000000000000e11      0x68f CMakeFiles/la9310.dir/home/deepika/21_sept_macro_changes/PS_NLM_5G_LAT/nlm_controller/Source/queue.c.obj
                                        0xe35 (size before relaxing)
 .debug_str     0x00000000000014a0      0x7ce CMakeFiles/la9310.dir/home/deepika/21_sept_macro_changes/PS_NLM_5G_LAT/nlm_controller/Source/tasks.c.obj
                                       0x11c7 (size before relaxing)
 .debug_str     0x0000000000001c6e      0x4f5 CMakeFiles/la9310.dir/home/deepika/21_sept_macro_changes/PS_NLM_5G_LAT/nlm_controller/Source/timers.c.obj
                                        0xd45 (size before relaxing)
 .debug_str     0x0000000000002163      0xb7d CMakeFiles/la9310.dir/drivers/serial/debug_console.c.obj
                                       0x11af (size before relaxing)
 .debug_str     0x0000000000002ce0      0x1cb CMakeFiles/la9310.dir/drivers/serial/print_scan.c.obj
                                       0x105b (size before relaxing)
 .debug_str     0x0000000000002eab      0x157 CMakeFiles/la9310.dir/drivers/serial/serial_ns16550.c.obj
                                        0xfd0 (size before relaxing)
 .debug_str     0x0000000000003002       0x94 CMakeFiles/la9310.dir/drivers/serial/nmm_logging.c.obj
                                        0xf07 (size before relaxing)
 .debug_str     0x0000000000003096      0x5a5 CMakeFiles/la9310.dir/drivers/edma/la9310_edma.c.obj
                                       0x14e1 (size before relaxing)
 .debug_str     0x000000000000363b       0x8e CMakeFiles/la9310.dir/drivers/misc/mem_log.c.obj
                                        0xee2 (size before relaxing)
 .debug_str     0x00000000000036c9      0x208 CMakeFiles/la9310.dir/drivers/watchdog/la9310_watchdog.c.obj
                                       0x1535 (size before relaxing)
 .debug_str     0x00000000000038d1       0xfb CMakeFiles/la9310.dir/platform/ARM_CM4/soc.c.obj
                                        0xf2b (size before relaxing)
 .debug_str     0x00000000000039cc       0xaf CMakeFiles/la9310.dir/platform/boards/la9310/board.c.obj
                                        0xef1 (size before relaxing)
 .debug_str     0x0000000000003a7b      0x1a0 CMakeFiles/la9310.dir/platform/ARM_CM4/exceptions.c.obj
                                       0x103b (size before relaxing)
 .debug_str     0x0000000000003c1b      0x160 CMakeFiles/la9310.dir/platform/boards/la9310/hardware_init.c.obj
                                       0x11a5 (size before relaxing)
 .debug_str     0x0000000000003d7b      0x4f8 CMakeFiles/la9310.dir/main.c.obj
                                       0x199b (size before relaxing)
 .debug_str     0x0000000000004273      0x339 CMakeFiles/la9310.dir/cmd_ctrl_vspa_intfce.c.obj
                                       0x12ec (size before relaxing)
 .debug_str     0x00000000000045ac      0x13b CMakeFiles/la9310.dir/nmm_avi.c.obj
                                        0xffc (size before relaxing)
 .debug_str     0x00000000000046e7      0xb7a CMakeFiles/la9310.dir/nmm_app.c.obj
                                       0x2288 (size before relaxing)
 .debug_str     0x0000000000005261      0x1be CMakeFiles/la9310.dir/la9310_irq.c.obj
                                       0x159a (size before relaxing)
 .debug_str     0x000000000000541f      0x304 CMakeFiles/la9310.dir/drivers/misc/bbdev_ipc.c.obj
                                       0x151d (size before relaxing)
 .debug_str     0x0000000000005723      0x7fc CMakeFiles/la9310.dir/drivers/avi/la9310_avi.c.obj
                                       0x1d7f (size before relaxing)
 .debug_str     0x0000000000005f1f      0x11b CMakeFiles/la9310.dir/drivers/misc/la9310_gpio.c.obj
                                       0x10d5 (size before relaxing)
 .debug_str     0x000000000000603a       0xa5 CMakeFiles/la9310.dir/drivers/misc/la9310_pinmux.c.obj
                                        0x692 (size before relaxing)
 .debug_str     0x00000000000060df      0x36f CMakeFiles/la9310.dir/drivers/i2c/la9310_i2c.c.obj
                                       0x12a4 (size before relaxing)
 .debug_str     0x000000000000644e      0x1d0 CMakeFiles/la9310.dir/drivers/pcie/la9310_pcie.c.obj
                                       0x123d (size before relaxing)
 .debug_str     0x000000000000661e      0x260 CMakeFiles/la9310.dir/drivers/dspi/fsl_dspi.c.obj
                                       0x121b (size before relaxing)
 .debug_str     0x000000000000687e      0x2a7 CMakeFiles/la9310.dir/drivers/phy_timer/phytimer.c.obj
                                       0x163c (size before relaxing)
 .debug_str     0x0000000000006b25     0x17fb CMakeFiles/la9310.dir/drivers/timesync/sync_timing_device.c.obj
                                       0x2b0b (size before relaxing)
 .debug_str     0x0000000000008320      0x112 CMakeFiles/la9310.dir/sw_cmd_engine/sw_cmd_engine.c.obj
                                       0x1534 (size before relaxing)
 .debug_str     0x0000000000008432       0x72 CMakeFiles/la9310.dir/utils/delay.c.obj
                                        0x17b (size before relaxing)
 .debug_str     0x00000000000084a4      0x204 CMakeFiles/la9310.dir/drivers/dcs/la9310_dcs.c.obj
                                       0x11d0 (size before relaxing)
 .debug_str     0x00000000000086a8      0x331 CMakeFiles/la9310.dir/utils/FreeRTOS-Plus-CLI-Source/FreeRTOS_CLI.c.obj
                                        0x93f (size before relaxing)
 .debug_str     0x00000000000089d9      0x210 CMakeFiles/la9310.dir/utils/command_from_shell.c.obj
                                       0x1414 (size before relaxing)
 .debug_str     0x0000000000008be9      0x12f CMakeFiles/la9310.dir/utils/UARTCommandConsole.c.obj
                                       0x102e (size before relaxing)
 .debug_str     0x0000000000008d18      0x21e CMakeFiles/la9310.dir/drivers/rfic/rfic_init.c.obj
                                       0x126d (size before relaxing)
 .debug_str     0x0000000000008f36      0x3af CMakeFiles/la9310.dir/drivers/rfic/rfic_core.c.obj
                                       0x1278 (size before relaxing)
 .debug_str     0x00000000000092e5      0x11c CMakeFiles/la9310.dir/drivers/rfic/rfic_avi_ctrl.c.obj
                                       0x101a (size before relaxing)
 .debug_str     0x0000000000009401      0x1f7 CMakeFiles/la9310.dir/drivers/rfic/rfic_api.c.obj
                                       0x1395 (size before relaxing)
 .debug_str     0x00000000000095f8      0x137 CMakeFiles/la9310.dir/drivers/rfic/rfic_vga.c.obj
                                       0x1155 (size before relaxing)
 .debug_str     0x000000000000972f      0x175 CMakeFiles/la9310.dir/drivers/rfic/rfic_synth.c.obj
                                       0x11a5 (size before relaxing)
 .debug_str     0x00000000000098a4       0xd9 CMakeFiles/la9310.dir/drivers/rfic/rfic_demod.c.obj
                                       0x10b1 (size before relaxing)
 .debug_str     0x000000000000997d      0x217 CMakeFiles/la9310.dir/drivers/rfic/rfic_cmd.c.obj
                                       0x1693 (size before relaxing)
 .debug_str     0x0000000000009b94       0x7f CMakeFiles/la9310.dir/drivers/rfic/rfic_dac.c.obj
                                        0xf12 (size before relaxing)

.comment        0x0000000000000000       0x7f
 .comment       0x0000000000000000       0x7f CMakeFiles/la9310.dir/home/deepika/21_sept_macro_changes/PS_NLM_5G_LAT/nlm_controller/Source/portable/GCC/ARM_CM4/port.c.obj
                                         0x80 (size before relaxing)
 .comment       0x000000000000007f       0x80 CMakeFiles/la9310.dir/home/deepika/21_sept_macro_changes/PS_NLM_5G_LAT/nlm_controller/Source/portable/MemMang/heap_2.c.obj
 .comment       0x000000000000007f       0x80 CMakeFiles/la9310.dir/home/deepika/21_sept_macro_changes/PS_NLM_5G_LAT/nlm_controller/Source/event_groups.c.obj
 .comment       0x000000000000007f       0x80 CMakeFiles/la9310.dir/home/deepika/21_sept_macro_changes/PS_NLM_5G_LAT/nlm_controller/Source/list.c.obj
 .comment       0x000000000000007f       0x80 CMakeFiles/la9310.dir/home/deepika/21_sept_macro_changes/PS_NLM_5G_LAT/nlm_controller/Source/queue.c.obj
 .comment       0x000000000000007f       0x80 CMakeFiles/la9310.dir/home/deepika/21_sept_macro_changes/PS_NLM_5G_LAT/nlm_controller/Source/tasks.c.obj
 .comment       0x000000000000007f       0x80 CMakeFiles/la9310.dir/home/deepika/21_sept_macro_changes/PS_NLM_5G_LAT/nlm_controller/Source/timers.c.obj
 .comment       0x000000000000007f       0x80 CMakeFiles/la9310.dir/drivers/serial/debug_console.c.obj
 .comment       0x000000000000007f       0x80 CMakeFiles/la9310.dir/drivers/serial/print_scan.c.obj
 .comment       0x000000000000007f       0x80 CMakeFiles/la9310.dir/drivers/serial/serial_ns16550.c.obj
 .comment       0x000000000000007f       0x80 CMakeFiles/la9310.dir/drivers/serial/nmm_logging.c.obj
 .comment       0x000000000000007f       0x80 CMakeFiles/la9310.dir/drivers/edma/la9310_edma.c.obj
 .comment       0x000000000000007f       0x80 CMakeFiles/la9310.dir/drivers/misc/mem_log.c.obj
 .comment       0x000000000000007f       0x80 CMakeFiles/la9310.dir/drivers/watchdog/la9310_watchdog.c.obj
 .comment       0x000000000000007f       0x80 CMakeFiles/la9310.dir/platform/ARM_CM4/soc.c.obj
 .comment       0x000000000000007f       0x80 CMakeFiles/la9310.dir/platform/boards/la9310/board.c.obj
 .comment       0x000000000000007f       0x80 CMakeFiles/la9310.dir/platform/ARM_CM4/exceptions.c.obj
 .comment       0x000000000000007f       0x80 CMakeFiles/la9310.dir/platform/boards/la9310/hardware_init.c.obj
 .comment       0x000000000000007f       0x80 CMakeFiles/la9310.dir/main.c.obj
 .comment       0x000000000000007f       0x80 CMakeFiles/la9310.dir/cmd_ctrl_vspa_intfce.c.obj
 .comment       0x000000000000007f       0x80 CMakeFiles/la9310.dir/nmm_avi.c.obj
 .comment       0x000000000000007f       0x80 CMakeFiles/la9310.dir/nmm_app.c.obj
 .comment       0x000000000000007f       0x80 CMakeFiles/la9310.dir/la9310_irq.c.obj
 .comment       0x000000000000007f       0x80 CMakeFiles/la9310.dir/drivers/misc/bbdev_ipc.c.obj
 .comment       0x000000000000007f       0x80 CMakeFiles/la9310.dir/drivers/avi/la9310_avi.c.obj
 .comment       0x000000000000007f       0x80 CMakeFiles/la9310.dir/drivers/misc/la9310_gpio.c.obj
 .comment       0x000000000000007f       0x80 CMakeFiles/la9310.dir/drivers/misc/la9310_pinmux.c.obj
 .comment       0x000000000000007f       0x80 CMakeFiles/la9310.dir/drivers/i2c/la9310_i2c.c.obj
 .comment       0x000000000000007f       0x80 CMakeFiles/la9310.dir/drivers/pcie/la9310_pcie.c.obj
 .comment       0x000000000000007f       0x80 CMakeFiles/la9310.dir/drivers/dspi/fsl_dspi.c.obj
 .comment       0x000000000000007f       0x80 CMakeFiles/la9310.dir/drivers/phy_timer/phytimer.c.obj
 .comment       0x000000000000007f       0x80 CMakeFiles/la9310.dir/drivers/timesync/sync_timing_device.c.obj
 .comment       0x000000000000007f       0x80 CMakeFiles/la9310.dir/sw_cmd_engine/sw_cmd_engine.c.obj
 .comment       0x000000000000007f       0x80 CMakeFiles/la9310.dir/utils/delay.c.obj
 .comment       0x000000000000007f       0x80 CMakeFiles/la9310.dir/drivers/dcs/la9310_dcs.c.obj
 .comment       0x000000000000007f       0x80 CMakeFiles/la9310.dir/utils/FreeRTOS-Plus-CLI-Source/FreeRTOS_CLI.c.obj
 .comment       0x000000000000007f       0x80 CMakeFiles/la9310.dir/utils/command_from_shell.c.obj
 .comment       0x000000000000007f       0x80 CMakeFiles/la9310.dir/utils/UARTCommandConsole.c.obj
 .comment       0x000000000000007f       0x80 CMakeFiles/la9310.dir/drivers/rfic/rfic_init.c.obj
 .comment       0x000000000000007f       0x80 CMakeFiles/la9310.dir/drivers/rfic/rfic_core.c.obj
 .comment       0x000000000000007f       0x80 CMakeFiles/la9310.dir/drivers/rfic/rfic_avi_ctrl.c.obj
 .comment       0x000000000000007f       0x80 CMakeFiles/la9310.dir/drivers/rfic/rfic_api.c.obj
 .comment       0x000000000000007f       0x80 CMakeFiles/la9310.dir/drivers/rfic/rfic_vga.c.obj
 .comment       0x000000000000007f       0x80 CMakeFiles/la9310.dir/drivers/rfic/rfic_synth.c.obj
 .comment       0x000000000000007f       0x80 CMakeFiles/la9310.dir/drivers/rfic/rfic_demod.c.obj
 .comment       0x000000000000007f       0x80 CMakeFiles/la9310.dir/drivers/rfic/rfic_cmd.c.obj
 .comment       0x000000000000007f       0x80 CMakeFiles/la9310.dir/drivers/rfic/rfic_dac.c.obj

.debug_frame    0x0000000000000000     0x3664
 .debug_frame   0x0000000000000000       0xe0 CMakeFiles/la9310.dir/home/deepika/21_sept_macro_changes/PS_NLM_5G_LAT/nlm_controller/Source/portable/GCC/ARM_CM4/port.c.obj
 .debug_frame   0x00000000000000e0       0x74 CMakeFiles/la9310.dir/home/deepika/21_sept_macro_changes/PS_NLM_5G_LAT/nlm_controller/Source/portable/MemMang/heap_2.c.obj
 .debug_frame   0x0000000000000154      0x100 CMakeFiles/la9310.dir/home/deepika/21_sept_macro_changes/PS_NLM_5G_LAT/nlm_controller/Source/event_groups.c.obj
 .debug_frame   0x0000000000000254       0x6c CMakeFiles/la9310.dir/home/deepika/21_sept_macro_changes/PS_NLM_5G_LAT/nlm_controller/Source/list.c.obj
 .debug_frame   0x00000000000002c0      0x338 CMakeFiles/la9310.dir/home/deepika/21_sept_macro_changes/PS_NLM_5G_LAT/nlm_controller/Source/queue.c.obj
 .debug_frame   0x00000000000005f8      0x4ac CMakeFiles/la9310.dir/home/deepika/21_sept_macro_changes/PS_NLM_5G_LAT/nlm_controller/Source/tasks.c.obj
 .debug_frame   0x0000000000000aa4      0x1cc CMakeFiles/la9310.dir/home/deepika/21_sept_macro_changes/PS_NLM_5G_LAT/nlm_controller/Source/timers.c.obj
 .debug_frame   0x0000000000000c70       0xcc CMakeFiles/la9310.dir/drivers/serial/debug_console.c.obj
 .debug_frame   0x0000000000000d3c       0xc4 CMakeFiles/la9310.dir/drivers/serial/print_scan.c.obj
 .debug_frame   0x0000000000000e00       0x4c CMakeFiles/la9310.dir/drivers/serial/serial_ns16550.c.obj
 .debug_frame   0x0000000000000e4c       0x58 CMakeFiles/la9310.dir/drivers/serial/nmm_logging.c.obj
 .debug_frame   0x0000000000000ea4       0x98 CMakeFiles/la9310.dir/drivers/edma/la9310_edma.c.obj
 .debug_frame   0x0000000000000f3c       0x2c CMakeFiles/la9310.dir/drivers/misc/mem_log.c.obj
 .debug_frame   0x0000000000000f68       0x80 CMakeFiles/la9310.dir/drivers/watchdog/la9310_watchdog.c.obj
 .debug_frame   0x0000000000000fe8       0x40 CMakeFiles/la9310.dir/platform/ARM_CM4/soc.c.obj
 .debug_frame   0x0000000000001028       0x3c CMakeFiles/la9310.dir/platform/boards/la9310/board.c.obj
 .debug_frame   0x0000000000001064       0x48 CMakeFiles/la9310.dir/platform/ARM_CM4/exceptions.c.obj
 .debug_frame   0x00000000000010ac       0x50 CMakeFiles/la9310.dir/platform/boards/la9310/hardware_init.c.obj
 .debug_frame   0x00000000000010fc       0xf8 CMakeFiles/la9310.dir/main.c.obj
 .debug_frame   0x00000000000011f4       0xa4 CMakeFiles/la9310.dir/cmd_ctrl_vspa_intfce.c.obj
 .debug_frame   0x0000000000001298       0x58 CMakeFiles/la9310.dir/nmm_avi.c.obj
 .debug_frame   0x00000000000012f0      0x52c CMakeFiles/la9310.dir/nmm_app.c.obj
 .debug_frame   0x000000000000181c       0xf8 CMakeFiles/la9310.dir/la9310_irq.c.obj
 .debug_frame   0x0000000000001914      0x12c CMakeFiles/la9310.dir/drivers/misc/bbdev_ipc.c.obj
 .debug_frame   0x0000000000001a40      0x198 CMakeFiles/la9310.dir/drivers/avi/la9310_avi.c.obj
 .debug_frame   0x0000000000001bd8       0x84 CMakeFiles/la9310.dir/drivers/misc/la9310_gpio.c.obj
 .debug_frame   0x0000000000001c5c       0x30 CMakeFiles/la9310.dir/drivers/misc/la9310_pinmux.c.obj
 .debug_frame   0x0000000000001c8c      0x164 CMakeFiles/la9310.dir/drivers/i2c/la9310_i2c.c.obj
 .debug_frame   0x0000000000001df0       0xe4 CMakeFiles/la9310.dir/drivers/pcie/la9310_pcie.c.obj
 .debug_frame   0x0000000000001ed4      0x130 CMakeFiles/la9310.dir/drivers/dspi/fsl_dspi.c.obj
 .debug_frame   0x0000000000002004      0x170 CMakeFiles/la9310.dir/drivers/phy_timer/phytimer.c.obj
 .debug_frame   0x0000000000002174      0x1e8 CMakeFiles/la9310.dir/drivers/timesync/sync_timing_device.c.obj
 .debug_frame   0x000000000000235c       0x6c CMakeFiles/la9310.dir/sw_cmd_engine/sw_cmd_engine.c.obj
 .debug_frame   0x00000000000023c8       0x20 CMakeFiles/la9310.dir/utils/delay.c.obj
 .debug_frame   0x00000000000023e8       0xe4 CMakeFiles/la9310.dir/drivers/dcs/la9310_dcs.c.obj
 .debug_frame   0x00000000000024cc       0x94 CMakeFiles/la9310.dir/utils/FreeRTOS-Plus-CLI-Source/FreeRTOS_CLI.c.obj
 .debug_frame   0x0000000000002560      0x100 CMakeFiles/la9310.dir/utils/command_from_shell.c.obj
 .debug_frame   0x0000000000002660       0x54 CMakeFiles/la9310.dir/utils/UARTCommandConsole.c.obj
 .debug_frame   0x00000000000026b4       0x84 CMakeFiles/la9310.dir/drivers/rfic/rfic_init.c.obj
 .debug_frame   0x0000000000002738       0x8c CMakeFiles/la9310.dir/drivers/rfic/rfic_core.c.obj
 .debug_frame   0x00000000000027c4       0x5c CMakeFiles/la9310.dir/drivers/rfic/rfic_avi_ctrl.c.obj
 .debug_frame   0x0000000000002820      0x114 CMakeFiles/la9310.dir/drivers/rfic/rfic_api.c.obj
 .debug_frame   0x0000000000002934       0x4c CMakeFiles/la9310.dir/drivers/rfic/rfic_vga.c.obj
 .debug_frame   0x0000000000002980       0xc0 CMakeFiles/la9310.dir/drivers/rfic/rfic_synth.c.obj
 .debug_frame   0x0000000000002a40       0xb8 CMakeFiles/la9310.dir/drivers/rfic/rfic_demod.c.obj
 .debug_frame   0x0000000000002af8      0x174 CMakeFiles/la9310.dir/drivers/rfic/rfic_cmd.c.obj
 .debug_frame   0x0000000000002c6c       0x2c CMakeFiles/la9310.dir/drivers/rfic/rfic_dac.c.obj
 .debug_frame   0x0000000000002c98       0x28 /home/deepika/Tools_controller/gcc-arm-none-eabi-6-2017-q2-update/bin/../lib/gcc/arm-none-eabi/6.3.1/../../../../arm-none-eabi/lib/thumb/v7e-m/libm.a(lib_a-sf_round.o)
 .debug_frame   0x0000000000002cc0       0x20 /home/deepika/Tools_controller/gcc-arm-none-eabi-6-2017-q2-update/bin/../lib/gcc/arm-none-eabi/6.3.1/../../../../arm-none-eabi/lib/thumb/v7e-m/libm.a(lib_a-w_atan2.o)
 .debug_frame   0x0000000000002ce0       0x48 /home/deepika/Tools_controller/gcc-arm-none-eabi-6-2017-q2-update/bin/../lib/gcc/arm-none-eabi/6.3.1/../../../../arm-none-eabi/lib/thumb/v7e-m/libm.a(lib_a-e_atan2.o)
 .debug_frame   0x0000000000002d28       0x38 /home/deepika/Tools_controller/gcc-arm-none-eabi-6-2017-q2-update/bin/../lib/gcc/arm-none-eabi/6.3.1/../../../../arm-none-eabi/lib/thumb/v7e-m/libm.a(lib_a-s_atan.o)
 .debug_frame   0x0000000000002d60       0x20 /home/deepika/Tools_controller/gcc-arm-none-eabi-6-2017-q2-update/bin/../lib/gcc/arm-none-eabi/6.3.1/../../../../arm-none-eabi/lib/thumb/v7e-m/libm.a(lib_a-s_fabs.o)
 .debug_frame   0x0000000000002d80       0x20 /home/deepika/Tools_controller/gcc-arm-none-eabi-6-2017-q2-update/bin/../lib/gcc/arm-none-eabi/6.3.1/../../../../arm-none-eabi/lib/thumb/v7e-m/libc_nano.a(lib_a-errno.o)
 .debug_frame   0x0000000000002da0       0x28 /home/deepika/Tools_controller/gcc-arm-none-eabi-6-2017-q2-update/bin/../lib/gcc/arm-none-eabi/6.3.1/../../../../arm-none-eabi/lib/thumb/v7e-m/libc_nano.a(lib_a-exit.o)
 .debug_frame   0x0000000000002dc8       0x2c /home/deepika/Tools_controller/gcc-arm-none-eabi-6-2017-q2-update/bin/../lib/gcc/arm-none-eabi/6.3.1/../../../../arm-none-eabi/lib/thumb/v7e-m/libc_nano.a(lib_a-init.o)
 .debug_frame   0x0000000000002df4       0x28 /home/deepika/Tools_controller/gcc-arm-none-eabi-6-2017-q2-update/bin/../lib/gcc/arm-none-eabi/6.3.1/../../../../arm-none-eabi/lib/thumb/v7e-m/libc_nano.a(lib_a-memcmp.o)
 .debug_frame   0x0000000000002e1c       0x28 /home/deepika/Tools_controller/gcc-arm-none-eabi-6-2017-q2-update/bin/../lib/gcc/arm-none-eabi/6.3.1/../../../../arm-none-eabi/lib/thumb/v7e-m/libc_nano.a(lib_a-memcpy-stub.o)
 .debug_frame   0x0000000000002e44       0x20 /home/deepika/Tools_controller/gcc-arm-none-eabi-6-2017-q2-update/bin/../lib/gcc/arm-none-eabi/6.3.1/../../../../arm-none-eabi/lib/thumb/v7e-m/libc_nano.a(lib_a-memset.o)
 .debug_frame   0x0000000000002e64       0x70 /home/deepika/Tools_controller/gcc-arm-none-eabi-6-2017-q2-update/bin/../lib/gcc/arm-none-eabi/6.3.1/../../../../arm-none-eabi/lib/thumb/v7e-m/libc_nano.a(lib_a-sprintf.o)
 .debug_frame   0x0000000000002ed4       0x20 /home/deepika/Tools_controller/gcc-arm-none-eabi-6-2017-q2-update/bin/../lib/gcc/arm-none-eabi/6.3.1/../../../../arm-none-eabi/lib/thumb/v7e-m/libc_nano.a(lib_a-strcpy.o)
 .debug_frame   0x0000000000002ef4       0x2c /home/deepika/Tools_controller/gcc-arm-none-eabi-6-2017-q2-update/bin/../lib/gcc/arm-none-eabi/6.3.1/../../../../arm-none-eabi/lib/thumb/v7e-m/libc_nano.a(lib_a-strncat.o)
 .debug_frame   0x0000000000002f20       0x28 /home/deepika/Tools_controller/gcc-arm-none-eabi-6-2017-q2-update/bin/../lib/gcc/arm-none-eabi/6.3.1/../../../../arm-none-eabi/lib/thumb/v7e-m/libc_nano.a(lib_a-strncmp.o)
 .debug_frame   0x0000000000002f48       0x2c /home/deepika/Tools_controller/gcc-arm-none-eabi-6-2017-q2-update/bin/../lib/gcc/arm-none-eabi/6.3.1/../../../../arm-none-eabi/lib/thumb/v7e-m/libc_nano.a(lib_a-strncpy.o)
 .debug_frame   0x0000000000002f74       0x84 /home/deepika/Tools_controller/gcc-arm-none-eabi-6-2017-q2-update/bin/../lib/gcc/arm-none-eabi/6.3.1/../../../../arm-none-eabi/lib/thumb/v7e-m/libc_nano.a(lib_a-strtoul.o)
 .debug_frame   0x0000000000002ff8       0x68 /home/deepika/Tools_controller/gcc-arm-none-eabi-6-2017-q2-update/bin/../lib/gcc/arm-none-eabi/6.3.1/../../../../arm-none-eabi/lib/thumb/v7e-m/libc_nano.a(lib_a-locale.o)
 .debug_frame   0x0000000000003060       0x48 /home/deepika/Tools_controller/gcc-arm-none-eabi-6-2017-q2-update/bin/../lib/gcc/arm-none-eabi/6.3.1/../../../../arm-none-eabi/lib/thumb/v7e-m/libc_nano.a(lib_a-mbtowc_r.o)
 .debug_frame   0x00000000000030a8       0x90 /home/deepika/Tools_controller/gcc-arm-none-eabi-6-2017-q2-update/bin/../lib/gcc/arm-none-eabi/6.3.1/../../../../arm-none-eabi/lib/thumb/v7e-m/libc_nano.a(lib_a-nano-svfprintf.o)
 .debug_frame   0x0000000000003138       0x60 /home/deepika/Tools_controller/gcc-arm-none-eabi-6-2017-q2-update/bin/../lib/gcc/arm-none-eabi/6.3.1/../../../../arm-none-eabi/lib/thumb/v7e-m/libc_nano.a(lib_a-nano-vfprintf_i.o)
 .debug_frame   0x0000000000003198       0x3c /home/deepika/Tools_controller/gcc-arm-none-eabi-6-2017-q2-update/bin/../lib/gcc/arm-none-eabi/6.3.1/../../../../arm-none-eabi/lib/thumb/v7e-m/libc_nano.a(lib_a-wctomb_r.o)
 .debug_frame   0x00000000000031d4       0x28 /home/deepika/Tools_controller/gcc-arm-none-eabi-6-2017-q2-update/bin/../lib/gcc/arm-none-eabi/6.3.1/../../../../arm-none-eabi/lib/thumb/v7e-m/libc_nano.a(lib_a-memmove.o)
 .debug_frame   0x00000000000031fc       0x38 /home/deepika/Tools_controller/gcc-arm-none-eabi-6-2017-q2-update/bin/../lib/gcc/arm-none-eabi/6.3.1/../../../../arm-none-eabi/lib/thumb/v7e-m/libc_nano.a(lib_a-nano-freer.o)
 .debug_frame   0x0000000000003234       0x2c /home/deepika/Tools_controller/gcc-arm-none-eabi-6-2017-q2-update/bin/../lib/gcc/arm-none-eabi/6.3.1/../../../../arm-none-eabi/lib/thumb/v7e-m/libc_nano.a(lib_a-nano-mallocr.o)
 .debug_frame   0x0000000000003260       0x3c /home/deepika/Tools_controller/gcc-arm-none-eabi-6-2017-q2-update/bin/../lib/gcc/arm-none-eabi/6.3.1/../../../../arm-none-eabi/lib/thumb/v7e-m/libc_nano.a(lib_a-nano-reallocr.o)
 .debug_frame   0x000000000000329c       0x2c /home/deepika/Tools_controller/gcc-arm-none-eabi-6-2017-q2-update/bin/../lib/gcc/arm-none-eabi/6.3.1/../../../../arm-none-eabi/lib/thumb/v7e-m/libc_nano.a(lib_a-sbrkr.o)
 .debug_frame   0x00000000000032c8       0x30 /home/deepika/Tools_controller/gcc-arm-none-eabi-6-2017-q2-update/bin/../lib/gcc/arm-none-eabi/6.3.1/../../../../arm-none-eabi/lib/thumb/v7e-m/libc_nano.a(lib_a-mlock.o)
 .debug_frame   0x00000000000032f8       0x20 /home/deepika/Tools_controller/gcc-arm-none-eabi-6-2017-q2-update/bin/../lib/gcc/arm-none-eabi/6.3.1/../../../../arm-none-eabi/lib/thumb/v7e-m/libc_nano.a(lib_a-nano-msizer.o)
 .debug_frame   0x0000000000003318       0x5c /home/deepika/Tools_controller/gcc-arm-none-eabi-6-2017-q2-update/bin/../lib/gcc/arm-none-eabi/6.3.1/../../../../arm-none-eabi/lib/thumb/v7e-m/libc_nano.a(lib_a-reent.o)
 .debug_frame   0x0000000000003374       0xac /home/deepika/Tools_controller/gcc-arm-none-eabi-6-2017-q2-update/bin/../lib/gcc/arm-none-eabi/6.3.1/thumb/v7e-m/libgcc.a(_arm_addsubdf3.o)
 .debug_frame   0x0000000000003420       0x50 /home/deepika/Tools_controller/gcc-arm-none-eabi-6-2017-q2-update/bin/../lib/gcc/arm-none-eabi/6.3.1/thumb/v7e-m/libgcc.a(_arm_muldivdf3.o)
 .debug_frame   0x0000000000003470       0xc4 /home/deepika/Tools_controller/gcc-arm-none-eabi-6-2017-q2-update/bin/../lib/gcc/arm-none-eabi/6.3.1/thumb/v7e-m/libgcc.a(_arm_cmpdf2.o)
 .debug_frame   0x0000000000003534       0x24 /home/deepika/Tools_controller/gcc-arm-none-eabi-6-2017-q2-update/bin/../lib/gcc/arm-none-eabi/6.3.1/thumb/v7e-m/libgcc.a(_arm_fixdfsi.o)
 .debug_frame   0x0000000000003558       0x24 /home/deepika/Tools_controller/gcc-arm-none-eabi-6-2017-q2-update/bin/../lib/gcc/arm-none-eabi/6.3.1/thumb/v7e-m/libgcc.a(_arm_truncdfsf2.o)
 .debug_frame   0x000000000000357c       0x4c /home/deepika/Tools_controller/gcc-arm-none-eabi-6-2017-q2-update/bin/../lib/gcc/arm-none-eabi/6.3.1/thumb/v7e-m/libgcc.a(_arm_addsubsf3.o)
 .debug_frame   0x00000000000035c8       0x38 /home/deepika/Tools_controller/gcc-arm-none-eabi-6-2017-q2-update/bin/../lib/gcc/arm-none-eabi/6.3.1/thumb/v7e-m/libgcc.a(_arm_muldivsf3.o)
 .debug_frame   0x0000000000003600       0x24 /home/deepika/Tools_controller/gcc-arm-none-eabi-6-2017-q2-update/bin/../lib/gcc/arm-none-eabi/6.3.1/thumb/v7e-m/libgcc.a(_arm_fixsfsi.o)
 .debug_frame   0x0000000000003624       0x20 /home/deepika/Tools_controller/gcc-arm-none-eabi-6-2017-q2-update/bin/../lib/gcc/arm-none-eabi/6.3.1/../../../../arm-none-eabi/lib/thumb/v7e-m/libnosys.a(sbrk.o)
 .debug_frame   0x0000000000003644       0x20 /home/deepika/Tools_controller/gcc-arm-none-eabi-6-2017-q2-update/bin/../lib/gcc/arm-none-eabi/6.3.1/../../../../arm-none-eabi/lib/thumb/v7e-m/libnosys.a(_exit.o)
